ccopy_reg
_reconstructor
p0
(cartm.batches_utils
BatchVectorizer
p1
c__builtin__
object
p2
Ntp3
Rp4
(dp5
S'_batches_list'
p6
(lp7
g0
(cartm.batches_utils
Batch
p8
g2
Ntp9
Rp10
(dp11
S'_filename'
p12
S'/home/igor/projects/codeminers/first_task/batches/aaaaal.batch'
p13
sbag0
(g8
g2
Ntp14
Rp15
(dp16
g12
S'/home/igor/projects/codeminers/first_task/batches/aaaaaj.batch'
p17
sbag0
(g8
g2
Ntp18
Rp19
(dp20
g12
S'/home/igor/projects/codeminers/first_task/batches/aaaaai.batch'
p21
sbag0
(g8
g2
Ntp22
Rp23
(dp24
g12
S'/home/igor/projects/codeminers/first_task/batches/aaaaaa.batch'
p25
sbag0
(g8
g2
Ntp26
Rp27
(dp28
g12
S'/home/igor/projects/codeminers/first_task/batches/aaaaan.batch'
p29
sbag0
(g8
g2
Ntp30
Rp31
(dp32
g12
S'/home/igor/projects/codeminers/first_task/batches/aaaaab.batch'
p33
sbag0
(g8
g2
Ntp34
Rp35
(dp36
g12
S'/home/igor/projects/codeminers/first_task/batches/aaaaam.batch'
p37
sbag0
(g8
g2
Ntp38
Rp39
(dp40
g12
S'/home/igor/projects/codeminers/first_task/batches/aaaaah.batch'
p41
sbag0
(g8
g2
Ntp42
Rp43
(dp44
g12
S'/home/igor/projects/codeminers/first_task/batches/aaaaae.batch'
p45
sbag0
(g8
g2
Ntp46
Rp47
(dp48
g12
S'/home/igor/projects/codeminers/first_task/batches/aaaaag.batch'
p49
sbag0
(g8
g2
Ntp50
Rp51
(dp52
g12
S'/home/igor/projects/codeminers/first_task/batches/aaaaaf.batch'
p53
sbag0
(g8
g2
Ntp54
Rp55
(dp56
g12
S'/home/igor/projects/codeminers/first_task/batches/aaaaac.batch'
p57
sbag0
(g8
g2
Ntp58
Rp59
(dp60
g12
S'/home/igor/projects/codeminers/first_task/batches/aaaaad.batch'
p61
sbag0
(g8
g2
Ntp62
Rp63
(dp64
g12
S'/home/igor/projects/codeminers/first_task/batches/aaaaak.batch'
p65
sbasS'_weights'
p66
(lp67
F1.0
aF1.0
aF1.0
aF1.0
aF1.0
aF1.0
aF1.0
aF1.0
aF1.0
aF1.0
aF1.0
aF1.0
aF1.0
aF1.0
asS'_batch_size'
p68
I200
sS'_data_path'
p69
S'first_task/batches'
p70
sb.