c__builtin__
set
p0
((lp1
Viatrogenic
p2
aVoxygenation
p3
aVpacemaker
p4
aVcommensal
p5
aVlacrimal
p6
aVnarcotic
p7
aVobstruction
p8
aVdysplasia
p9
aVsedentary
p10
aVluxation
p11
aVmineralization
p12
aVintegrity
p13
aVphysiological
p14
aVventral
p15
aVcytochrome
p16
aVrisk
p17
aVcardiomegaly
p18
aVregional
p19
aVdermatophytosis
p20
aVreplication
p21
aVmania
p22
aVfibrinolytic
p23
aVmedicament
p24
aVproctitis
p25
aVdisorientation
p26
aVsolution
p27
aVcholesterol
p28
aVosmotic
p29
aVresorption
p30
aVdirect
p31
aVoligomenorrhoea
p32
aVinfiltration
p33
aVfiltration
p34
aVfaecal
p35
aVincompatible
p36
aVcondyloma
p37
aVpharmacon
p38
aVprotozoon
p39
aVdoubleblind
p40
aVparotitis
p41
aVpresynaptic
p42
aVasthenia
p43
aVresidual
p44
aVendothelium
p45
aVionization
p46
aVactive
p47
aVcontraction
p48
aVsubstance
p49
aVtranquillizer
p50
aVosteolysis
p51
aVperinatal
p52
aVhaemorrhoids
p53
aVleukorrhoea
p54
aVbiotransformation
p55
aVxerostomia
p56
aVcontractility
p57
aVdiameter
p58
aVclassification
p59
aVmobility
p60
aVpsychological
p61
aVsomatotrophin
p62
aVatrium
p63
aVnegative
p64
aVinsult
p65
aVmediate
p66
aVoophorectomy
p67
aVenanthema
p68
aVinfusion
p69
aVreversible
p70
aVadult
p71
aVexocrine
p72
aVhypersecretion
p73
aVtonsillitis
p74
aVleukopenia
p75
aVvagal
p76
aVunitdose
p77
aVchelation
p78
aVsuppository
p79
aVprecordial
p80
aVextrapyramidal
p81
aVsteatosis
p82
aVnatriuresis
p83
aVunilateral
p84
aVpurgative
p85
aVkeratitis
p86
aVascites
p87
aVimpregnation
p88
aVtenosynovitis
p89
aVcolonic
p90
aVtoxin
p91
aVperioperative
p92
aVphotosensitivity
p93
aVhaematological
p94
aVarthritis
p95
aVabdomen
p96
aVparallel
p97
aVhyperkeratosis
p98
aVeffective
p99
aVvitreous
p100
aVhypoglycaemia
p101
aVantidiuretic
p102
aVhypnotic
p103
aVcorrelation
p104
aVreflux
p105
aVfoetal
p106
aVarterial
p107
aVrecurrent
p108
aVinterpretation
p109
aVfeedback
p110
aVvasodilatation
p111
aVorchitis
p112
aVpapillitis
p113
aVarteriography
p114
aVantacid
p115
aVsomnolence
p116
aVauditory
p117
aVphallic
p118
aVcomplex
p119
aVmaximal
p120
aVneurodermatitis
p121
aVcombination
p122
aVfixation
p123
aVdesquamation
p124
aVneurological
p125
aVmiscible
p126
aVreagent
p127
aVhypoxia
p128
aVpenetration
p129
aVbronchial
p130
aVstructural
p131
aVvenereal
p132
aVparaesthesia
p133
aVnulliparous
p134
aVventilation
p135
aVencephalitis
p136
aVconstipation
p137
aVprepuce
p138
aVcardiopulmonary
p139
aVepidural
p140
aVneuroleptic
p141
aVcaustic
p142
aVdermatomycosis
p143
aVextract
p144
aVpsychic
p145
aVemphysema
p146
aVadhesion
p147
aVperception
p148
aVlinear
p149
aVbarrier
p150
aVnummular
p151
aVcirrhosis
p152
aVsensory
p153
aVhomologous
p154
aVchromosomal
p155
aVbacteraemia
p156
aVtympanum
p157
aVimmunogenic
p158
aVasepsis
p159
aVpreoperative
p160
aVprimary
p161
aVophthalmological
p162
aVdysfunction
p163
aVscarlatina
p164
aVneuromuscular
p165
aVneutralization
p166
aVantispasmodic
p167
aVeuphoria
p168
aVmastitis
p169
aVpalpitation
p170
aVmotility
p171
aVsuppressive
p172
aVanalgesic
p173
aVcorpus
p174
aVcannula
p175
aVthyrotoxicosis
p176
aVdyskinesia
p177
aVanaemia
p178
aVosmolarity
p179
aVantihypertensive
p180
aVcollapse
p181
aVanuria
p182
aVnonspecific
p183
aVthoracic
p184
aVgalactorrhoea
p185
aVurography
p186
aVParkinsonism
p187
aVcolitis
p188
aVanxiety
p189
aVantitoxin
p190
aVexudate
p191
aVpreparation
p192
aVpneumonia
p193
aVbiochemical
p194
aVhallucination
p195
aVdiuretic
p196
aVcrystalluria
p197
aVbronchitis
p198
aVmyositis
p199
aVspectrum
p200
aVoculomucocutaneous
p201
aVmenarche
p202
aVhyperostosis
p203
aVferriprive
p204
aVhydration
p205
aVsuperinfection
p206
aVspermatogenesis
p207
aVisotonic
p208
aVviscosity
p209
aVhyperaesthesia
p210
aVcarcinoma
p211
aVvaccinia
p212
aVphase
p213
aVgenital
p214
aVimmunological
p215
aVechography
p216
aVpotency
p217
aVepisode
p218
aVobservation
p219
aVnasolacrimal
p220
aVdermatosis
p221
aVmedical
p222
aVpyrexia
p223
aVurogenital
p224
aVhyperalgesia
p225
aVantidepressant
p226
aVdystonia
p227
aVurgency
p228
aVperioral
p229
aVantiphlogistic
p230
aVulcer
p231
aVlethal
p232
aVpapillary
p233
aVlatent
p234
aVchronotropic
p235
aVacne
p236
aVvaricella
p237
aVfontanelle
p238
aVdermatitis
p239
aVoculogyric
p240
aVpenicillinase
p241
aVadequate
p242
aVbradykinesia
p243
aVpalliative
p244
aVepidermal
p245
aVhaematemesis
p246
aVexpectorant
p247
aVstasis
p248
aVpsychiatric
p249
aVdegradation
p250
aVaetiology
p251
aVanxiolytic
p252
aVmucolytic
p253
aVorofacial
p254
aVmicrosomal
p255
aVrectal
p256
aVthrombophlebitis
p257
aVlabile
p258
aVimplication
p259
aVfertility
p260
aVfrigidity
p261
aVrehydration
p262
aVreference
p263
aVliquor
p264
aVdetection
p265
aVencephalopathy
p266
aVsporadic
p267
aVimmobilization
p268
aVcapacity
p269
aVepithelium
p270
aVhypoxaemia
p271
aVartificial
p272
aVantibiotherapy
p273
aVtolerance
p274
aVocular
p275
aVgastralgia
p276
aVoxidation
p277
aVmodify
p278
aVretrobulbar
p279
aVrenovascular
p280
aVemulsify
p281
aVgenitourinary
p282
aVdesensitization
p283
aVcontamination
p284
aVextracorporeal
p285
aVcor
p286
aVantidopaminergic
p287
aVagonist
p288
aVresistant
p289
aVventricular
p290
aVprogestogen
p291
aVpyoderma
p292
aVlaryngitis
p293
aVtone
p294
aVprostatism
p295
aVergotism
p296
aVepidemic
p297
aVcrossallergy
p298
aVcholelithiasis
p299
aVatheromatosis
p300
aVcontraindication
p301
aVabdominal
p302
aVvomitus
p303
aVmobilization
p304
aVextraction
p305
aVtrigger
p306
aVempyema
p307
aVarteriovenous
p308
aVcastration
p309
aVhospitalization
p310
aVleukocytic
p311
aVbioavailability
p312
aVadenitis
p313
aVerythema
p314
aVhaemoptysis
p315
aVcytotoxic
p316
aVbronchopneumonia
p317
aVvagolytic
p318
aVtransformation
p319
aVmicrobiological
p320
aVabrupt
p321
aVaural
p322
aVprocedure
p323
aVglossitis
p324
aVconcomitant
p325
aValkaloid
p326
aVperineal
p327
aVleukocytosis
p328
aVnephrolith
p329
aVhypoplasia
p330
aVanastomosis
p331
aVin
p332
aVnidation
p333
aVabscess
p334
aVpercutaneous
p335
aVaerophagy
p336
aVcumulative
p337
aVatopic
p338
aVlymphangitis
p339
aVsinusitis
p340
aVinduration
p341
aVcystoscopy
p342
aVnil
p343
aVconversion
p344
aVadenoma
p345
aVpharmacological
p346
aVregurgitation
p347
aVcatheter
p348
aVnormalization
p349
aVcycle
p350
aVfemoral
p351
aVsquamous
p352
aVcontact
p353
aVhydrophobic
p354
aVfungicide
p355
aVquantitative
p356
aVcystic
p357
aVendometriosis
p358
aVdyspareunia
p359
aVmyelotoxic
p360
aVbronchospasm
p361
aVclaudication
p362
aVcervix
p363
aVatrial
p364
aVsyncope
p365
aVprecipitation
p366
aVpassive
p367
aVtopical
p368
aVintubation
p369
aVaffinity
p370
aVplasma
p371
aVperidural
p372
aVagammaglobulinaemia
p373
aVflatulence
p374
aVindicative
p375
aVlymphoma
p376
aVthromboembolism
p377
aVdiplopia
p378
aVocclusion
p379
aVpharmacodynamics
p380
aVspecific
p381
aVhepatic
p382
aVdentition
p383
aVeffusion
p384
aVrhinitis
p385
aVhaemopoietic
p386
aVparietal
p387
aVindirect
p388
aVpsychogenic
p389
aVincontinence
p390
aVimmunization
p391
aVintraindividual
p392
aVcortical
p393
aVincidence
p394
aVdemulcent
p395
aVdental
p396
aVnecrolysis
p397
aVmenopause
p398
aVsubstitution
p399
aVcardiomyopathy
p400
aVherpes
p401
aVstomatological
p402
aVpredisposition
p403
aVvaginal
p404
aVkoilonychia
p405
aVsubconjunctival
p406
aVtetanus
p407
aVopisthotonos
p408
aVgravidity
p409
aVcoitus
p410
aVurticaria
p411
aVhypotonia
p412
aVanorexia
p413
aVvaccination
p414
aVsegment
p415
aVinitial
p416
aVapproximate
p417
aVclinical
p418
aVfraction
p419
aVmetabolism
p420
aVsynthesis
p421
aVintolerance
p422
aVecchymosis
p423
aVcatalyse
p424
aVincorporation
p425
aVpyogenic
p426
aVanaesthetic
p427
aVglottis
p428
aVfilmcoated
p429
aVextremity
p430
aVmyopia
p431
aVextrarenal
p432
aVmaximum
p433
aVpediculosis
p434
aVRaynaud's
p435
aVemotional
p436
aVpolyvalent
p437
aVjuvenile
p438
aVmedication
p439
aVneuritis
p440
aVinclusive
p441
aVpetit
p442
aVmuscular
p443
aVlimbic
p444
aVretrosternal
p445
aVanthrax
p446
aVphysical
p447
aVepidemiological
p448
aVoestrogen
p449
aVtest
p450
aVpolyuria
p451
aVvegetative
p452
aVerosion
p453
aVtic
p454
aVcrossresistance
p455
aVextravasation
p456
aVautonomic
p457
aVpylorus
p458
aVlymphadenopathy
p459
aVtranscutaneous
p460
aVcyanosis
p461
aVpalpebral
p462
aVsingultus
p463
aVtoxicological
p464
aVdiathesis
p465
aVhygienic
p466
aVradioactivity
p467
aVinterval
p468
aVcellulitis
p469
aVoxytocic
p470
aVurinary
p471
aVirrigation
p472
aVbolus
p473
aVauscultation
p474
aVepicondylitis
p475
aVrecidivist
p476
aVvariability
p477
aVmastodynia
p478
aVphysicochemical
p479
aVasymptomatic
p480
aVretention
p481
aVparenchyma
p482
aVpassage
p483
aVenvironment
p484
aVpolytherapy
p485
aVanalogous
p486
aVprotective
p487
aVtorsade
p488
aVgestation
p489
aVnephropathy
p490
aVcalcaemia
p491
aVexcipient
p492
aVrespiratory
p493
aVinvolution
p494
aVeosinophilia
p495
aVaccumulation
p496
aVdiarrhoea
p497
aVaseptic
p498
aVrepetitive
p499
aVenterohepatic
p500
aVemetic
p501
aVsideeffect
p502
aVvaricose
p503
aVpsychotropic
p504
aVdistension
p505
aVacidosis
p506
aVuniform
p507
aVmyelosuppression
p508
aVpotentialization
p509
aVmicturition
p510
aVparadoxical
p511
aVsystematic
p512
aVdigitalization
p513
aValkaline
p514
aVulceration
p515
aVhermetic
p516
aVcongestion
p517
aVpolydipsia
p518
aVtachyarrhythmia
p519
aVhypochondriasis
p520
aVcranial
p521
aVulcus
p522
aVprecursor
p523
aVodour
p524
aVsomatic
p525
aVepiphyseal
p526
aVsimultaneous
p527
aVchloasma
p528
aVcyst
p529
aVatrioventricular
p530
aVanoxia
p531
aVmassage
p532
aVpancreatitis
p533
aVhumour
p534
aVregeneration
p535
aVcrisis
p536
aVsympathetic
p537
aVadditive
p538
aVtoxoplasmosis
p539
aVpositive
p540
aVepigastralgia
p541
aVanatomical
p542
aVretinopathy
p543
aVanginal
p544
aVcreatinaemia
p545
aVtachycardia
p546
aVresuscitation
p547
aVtheoretical
p548
aVantiemetic
p549
aVsepticaemia
p550
aVdiurnal
p551
aVchemoreceptor
p552
aVsymptomatic
p553
aVvalidity
p554
aVvisual
p555
aVdefaecation
p556
aVpolypeptide
p557
aVabortion
p558
aValcoholism
p559
aVcutaneous
p560
aVseptum
p561
aVdosage
p562
aVspondylitis
p563
aVagent
p564
aVserum
p565
aVdyspnoea
p566
aVmonitoring
p567
aVinfantile
p568
aVdialysis
p569
aVmonocomponent
p570
aVnystagmus
p571
aVchemical
p572
aVimmune
p573
aVvital
p574
aVcriterion
p575
aVoptimal
p576
aVparavenous
p577
aVparameter
p578
aVdominance
p579
aVulcerogenic
p580
aVtoxaemia
p581
aVmenorrhagia
p582
aVspasticity
p583
aVmegaloblastic
p584
aVliposome
p585
aVambulant
p586
aVcardiac
p587
aVteratogenic
p588
aVmastoiditis
p589
aVstress
p590
aVsclerosis
p591
aVcerebellar
p592
aVneuroleptanalgesia
p593
aVphlegmon
p594
aVscotoma
p595
aVexclusive
p596
aVgradual
p597
aVepilepsy
p598
aVstability
p599
aVvasoactive
p600
aVstatistical
p601
aVtendency
p602
aVaplastic
p603
aVhepatotoxic
p604
aVsuspension
p605
aVanaleptic
p606
aVsterility
p607
aVphotophobia
p608
aVinsomnia
p609
aVcytostatic
p610
aVtoxic
p611
aVsubstrate
p612
aVoccult
p613
aVarteriolar
p614
aVprophylaxis
p615
aVoverdosage
p616
aVdysphoria
p617
aVcoagulation
p618
aVantiepileptic
p619
aVinstability
p620
aVfistula
p621
aVejaculation
p622
aVabnormal
p623
aVconvalescence
p624
aVmetrorrhagia
p625
aVobsession
p626
aVhypouricaemia
p627
aVflaccid
p628
aVauricular
p629
aVamnion
p630
aVhypovitaminosis
p631
aVinterference
p632
aVparoxysmal
p633
aVcardiogenic
p634
aVpessary
p635
aVpostoperative
p636
aVrestless
p637
aVmime
p638
aVlipodystrophy
p639
aVaccommodation
p640
aVhyperaldosteronism
p641
aVdeprivation
p642
aVcholeretic
p643
aVxanthopsia
p644
aVmassive
p645
aVlactation
p646
aVnephrotic
p647
aVmicronize
p648
aVplasminogen
p649
aVdistal
p650
aVtransdermal
p651
aVmammary
p652
aVtransaminase
p653
aVresponse
p654
aVindicate
p655
aVosmolality
p656
aVanus
p657
aVcontinuous
p658
aVadrenergic
p659
aVprosthesis
p660
aVbronchodilatation
p661
aVgastroenteritis
p662
aVacrocyanosis
p663
aVpopulation
p664
aVhyperplasia
p665
aVvasoconstriction
p666
aVmyalgia
p667
aVidiosyncrasy
p668
aVvulval
p669
aVpulsation
p670
aVmedullary
p671
aVdiastolic
p672
aVdouching
p673
aVcorrection
p674
aVcardiorespiratory
p675
aVangina
p676
aVgingivitis
p677
aVicterus
p678
aVosteotomy
p679
aVefficient
p680
aVisolate
p681
aVneutropenia
p682
aVfracture
p683
aVobjective
p684
aVgangrene
p685
aVcephalalgia
p686
aVmultiple
p687
aVsalpingitis
p688
aVpyrogenic
p689
aVtract
p690
aVhypoventilation
p691
aVduodenum
p692
aVrenal
p693
aVincisive
p694
aVsteady
p695
aVpernicious
p696
aVaerosol
p697
aVcortex
p698
aVmelanosis
p699
aVturnover
p700
aVcloaca
p701
aVcornea
p702
aVaplasia
p703
aVpityriasis
p704
aVsupraventricular
p705
aVprotrusion
p706
aVnadir
p707
aVconduction
p708
aVotorhinolaryngology
p709
aVmaculopapular
p710
aVmucopurulent
p711
aVextracellular
p712
aVrecuperation
p713
aVtinnitus
p714
aVmembrane
p715
aVprocreation
p716
aVrecombinant
p717
aVepisiotomy
p718
aVsecondary
p719
aVcardiotoxic
p720
aVnodose
p721
aVparasitic
p722
aVmedian
p723
aVroutinely
p724
aVthalamus
p725
aVvision
p726
aVlethargy
p727
aVvasomotor
p728
aVphotosensitization
p729
aVcholangitis
p730
aVpolyneuritis
p731
aVantipruritic
p732
aVhypodermic
p733
aVhypercapnia
p734
aVimpetigo
p735
aVdysentery
p736
aVgastrointestinal
p737
aVvoluntary
p738
aVinotropic
p739
aValkalosis
p740
aVarthropathy
p741
aVmicelle
p742
aVhyperaemia
p743
aVsympathomimetic
p744
aVsteroid
p745
aVdiverticulitis
p746
aVcervical
p747
aVneonatal
p748
aVregion
p749
aVbuccopharyngeal
p750
aVaura
p751
aVdelirium
p752
aVrhinopharyngitis
p753
aVsynovitis
p754
aVamine
p755
aVdislocation
p756
aVpostnatal
p757
aVantimitotic
p758
aVanosmia
p759
aVtumour
p760
aVhyperlipidaemia
p761
aVhepatomegaly
p762
aVinvert
p763
aVclassic
p764
aVincubation
p765
aVproduction
p766
aVexanthema
p767
aVreflective
p768
aVreflex
p769
aVtuberculostatic
p770
aVdysmenorrhoea
p771
aVgastroduodenal
p772
aVreaction
p773
aVagranulocytosis
p774
aVarthrosis
p775
aVsubcutaneous
p776
aVcystitis
p777
aVexternal
p778
aVophthalmic
p779
aVhernia
p780
aVdiffuse
p781
aVhypogonadism
p782
aVhypertrichosis
p783
aVenteritis
p784
aVpremature
p785
aVhypertrophy
p786
aVrefractory
p787
aVsplenomegaly
p788
aVdetoxication
p789
aVfasciculation
p790
aVpericarditis
p791
aVorientation
p792
aVmucus
p793
aVdysgenesis
p794
aVproteolytic
p795
aVprotein
p796
aVpremedication
p797
aVlaceration
p798
aVremission
p799
aVrelaxant
p800
aVadsorption
p801
aVsterilization
p802
aVpyelitis
p803
aVpolyarthritis
p804
aVdocument
p805
aVlumbago
p806
aVintermediary
p807
aVstatus
p808
aVassist
p809
aVincarceration
p810
aVvestibular
p811
aVmelanoma
p812
aVotorrhoea
p813
aVinhalation
p814
aVintermittent
p815
aVminimize
p816
aVintercostal
p817
aVconstitutional
p818
aVfoetoplacental
p819
aVosteodystrophy
p820
aVnocturia
p821
aVdepigmentation
p822
aVinstillation
p823
aVinfaust
p824
aVscabies
p825
aVdehydration
p826
aVatoxic
p827
aVproximal
p828
aVdifferentiation
p829
aVelectrolyte
p830
aVhomeostasis
p831
aVrevaluation
p832
aVinterstitial
p833
aVapplication
p834
aVQRS
p835
aVanamnesis
p836
aVnephrotoxic
p837
aVantitumour
p838
aVcatarrh
p839
aVhaematuria
p840
aVdiaphoresis
p841
aVinhibition
p842
aVrecipient
p843
aVacute
p844
aVparticle
p845
aVantiacid
p846
aVaqueous
p847
aVinterindividual
p848
aVcaudal
p849
aVenterocolitis
p850
aVnosocomial
p851
aVdrainage
p852
aVglossodynia
p853
aVuricosuric
p854
aVintestinal
p855
aVoligoelement
p856
aVamblyopia
p857
aVsymptomatology
p858
aVneuralgia
p859
aVperspiration
p860
aVataxia
p861
aVcachexia
p862
aVintact
p863
aVmicrogram
p864
aVspasm
p865
aVviral
p866
aVcolloidal
p867
aVaccidental
p868
aVcavity
p869
aVtube
p870
aVhepatitis
p871
aVconservative
p872
aVoncotic
p873
aVdepletion
p874
aVdeficit
p875
aVtransurethral
p876
aVintravenous
p877
aVpriapism
p878
aVovulation
p879
aVdermographia
p880
aVequivalent
p881
aVpancytopenia
p882
aVradiography
p883
aVparalysis
p884
aVantibody
p885
aVdisinfectant
p886
aVpseudomembranous
p887
aVhypothermia
p888
aVlytic
p889
aVmycotic
p890
aVimplantation
p891
aVantidote
p892
aVspinal
p893
aVintervention
p894
aVpharmaceutical
p895
aVperivascular
p896
aVglomerulonephritis
p897
aVhumoral
p898
aVthrombocytopaenia
p899
aVsecretion
p900
aVsubcapsular
p901
aVallergic
p902
aVemesis
p903
aVreabsorption
p904
aVgranules
p905
aVposterior
p906
aVjejunum
p907
aVintoxication
p908
aVelimination
p909
aVorthostatic
p910
aVirreversible
p911
aVcirculation
p912
aVdysgeusia
p913
aVaneurysm
p914
aVdecompensation
p915
aVossification
p916
aVautoimmune
p917
aVgeriatric
p918
aVtubercular
p919
aVmetastasis
p920
aVlumbar
p921
aVtophus
p922
aVhypertension
p923
aVantidiabetic
p924
aVsomnambulism
p925
aVhydroxylation
p926
aVaromatic
p927
aVantimicrobial
p928
aVimmunity
p929
aVcrossinfection
p930
aVstandardize
p931
aVbacillus
p932
aVuterus
p933
aVpeak
p934
aVileitis
p935
aVantiexudative
p936
aVbilateral
p937
aVapathy
p938
aVcurve
p939
aVtherapy
p940
aVexcretion
p941
aVingestion
p942
aVnutrient
p943
aVoral
p944
aVextrasystole
p945
aVinfluenza
p946
aVextravascular
p947
aVembolism
p948
aVautomatism
p949
aVallergy
p950
aVsurgical
p951
aVsystemic
p952
aVoverdose
p953
aVcollyrium
p954
aVosteoporosis
p955
aVprostaglandin
p956
aVhyperthermia
p957
aVbiliary
p958
aVhyperhidrosis
p959
aVpresentation
p960
aVendogenous
p961
aVcicatrization
p962
aVhypotension
p963
aVdyscrasia
p964
aVcapillary
p965
aVcondition
p966
aVimmunosuppressant
p967
aVpotentiation
p968
aVintervertebral
p969
aVhyperkalaemia
p970
aVskeletal
p971
aVthrombus
p972
aVsupplement
p973
aVbiological
p974
aVanal
p975
aVejection
p976
aVantibiotic
p977
aVgalenical
p978
aVcerebrovascular
p979
aVreactivation
p980
aVorgasm
p981
aVsalicylism
p982
aVpoliomyelitis
p983
aVototoxic
p984
aVhormonal
p985
aVpsychosomatic
p986
aVantiallergic
p987
aVovarian
p988
aVconjunctivitis
p989
aVhumeroscapular
p990
aVrigidity
p991
aVcontrast
p992
aVmetabolization
p993
aVreinfection
p994
aVichthyosis
p995
aVcomponent
p996
aVurethritis
p997
aVselective
p998
aVsubclinical
p999
aVstandard
p1000
aVhaemostasis
p1001
aVstupor
p1002
aVdecongestant
p1003
aVperiodic
p1004
aVoesophagitis
p1005
aVbalanitis
p1006
aVtoxicity
p1007
aVpathological
p1008
aVcataract
p1009
aVinvalidate
p1010
aVhaemophilia
p1011
aVmediator
p1012
aVtransit
p1013
aVcosmetic
p1014
aVvertebral
p1015
aVinorganic
p1016
aVaberrant
p1017
aVconventional
p1018
aVhyperventilation
p1019
aVgrampositive
p1020
aVlichenification
p1021
aVlyophilisate
p1022
aVtardive
p1023
aVadnexitis
p1024
aVlipoprotein
p1025
aVhaemodialysis
p1026
aVpuerperium
p1027
aVcochlear
p1028
aVkeratoconjunctivitis
p1029
aVradiotherapy
p1030
aVminimum
p1031
aVhyperpyrexia
p1032
aVspecies
p1033
aVosteomalacia
p1034
aVregression
p1035
aVchorea
p1036
aVemollient
p1037
aVvigilance
p1038
aVparenteral
p1039
aVmononucleosis
p1040
aVadvice
p1041
aVfungus
p1042
aVflutter
p1043
aVperitonitis
p1044
aVsupervision
p1045
aVfundamental
p1046
aVcomatose
p1047
aVbradycardia
p1048
aVreservoir
p1049
aVmucosa
p1050
aVdistortion
p1051
aVthermal
p1052
aVlipophilic
p1053
aVnephritis
p1054
aVkinetic
p1055
aVsubarachnoid
p1056
aVcardiovascular
p1057
aVfissure
p1058
aVsaprophyte
p1059
aVlateral
p1060
aVcholestasis
p1061
aVpsychomotor
p1062
aVconjugation
p1063
aVmutism
p1064
aVabsence
p1065
aVmicroscopic
p1066
aVhysterectomy
p1067
aVlibido
p1068
aVparaplegia
p1069
aVprenatal
p1070
aVabrasion
p1071
aVsphincter
p1072
aVaphasia
p1073
aVassociation
p1074
aVerection
p1075
aVantithrombotic
p1076
aVcardioselective
p1077
aVACTH
p1078
aVtransmission
p1079
aVinherent
p1080
aVpiloerection
p1081
aVmental
p1082
aVhypervitaminosis
p1083
aVpapule
p1084
aVhumeral
p1085
aVmasticatory
p1086
aVcomedone
p1087
aVpostural
p1088
aVvertigo
p1089
aVinnervation
p1090
aVmorphinomimetic
p1091
aVresearch
p1092
aVevaluation
p1093
aVparturition
p1094
aVsolvent
p1095
aVlocalization
p1096
aVobstetrical
p1097
aVbase
p1098
aVdisposition
p1099
aVsalivation
p1100
aVblister
p1101
aVelective
p1102
aVosteomyelitis
p1103
aVbiodegradation
p1104
aVpyelonephritis
p1105
aVmucocutaneous
p1106
aVneuropathy
p1107
aVregulation
p1108
aVfibrillation
p1109
aVapnoea
p1110
aVplexus
p1111
aVmolecular
p1112
aVxerophthalmia
p1113
aVsensitization
p1114
aVretinal
p1115
aVbasal
p1116
aVoliguria
p1117
aVtracheitis
p1118
aVperennial
p1119
aVdiffusion
p1120
aVpigmentation
p1121
aVincision
p1122
aVcyclic
p1123
aVvial
p1124
aVanovulatory
p1125
aVinstruction
p1126
aVelectrocardiography
p1127
aVdepolarization
p1128
aVantihistamine
p1129
aVglucose
p1130
aVphobia
p1131
aVcontraception
p1132
aVrhonchus
p1133
aVdendritic
p1134
aVneurovegetative
p1135
aVgramnegative
p1136
aVconcentration
p1137
aVfebrile
p1138
aVcommotion
p1139
aVgonioscopy
p1140
aVpapilloedema
p1141
aVinternal
p1142
aVgastrooesophageal
p1143
aVdonor
p1144
aVstenosis
p1145
aVpharyngitis
p1146
aVileus
p1147
aVeruption
p1148
aVantifibrinolytic
p1149
aVsignificant
p1150
aVkeratolytic
p1151
aVdystrophy
p1152
aVpostmenopausal
p1153
aVagalactia
p1154
aVintramuscular
p1155
aVmineralocorticoid
p1156
aVorganism
p1157
aVdermatological
p1158
aVphenomenon
p1159
aVtrachoma
p1160
aVcaries
p1161
aVmalignant
p1162
aVimmaturity
p1163
aVakinesia
p1164
aVemulsion
p1165
aVdecubitus
p1166
aVtensioactive
p1167
aVorthopaedic
p1168
aVparanoia
p1169
aVenzyme
p1170
aVsymptom
p1171
aVfactor
p1172
aVdependent
p1173
aVbiopsy
p1174
aVallergen
p1175
aVhypervolaemia
p1176
aVptosis
p1177
aVprogressive
p1178
aVampoule
p1179
aVclonic
p1180
aVsclera
p1181
aVactivity
p1182
aVcycloderma
p1183
aVfirstpass
p1184
aVuveitis
p1185
aVcorticosteroid
p1186
aVintelligence
p1187
aVantiproliferative
p1188
aVschizophrenia
p1189
aVindividual
p1190
aVpolymorphic
p1191
aVendocarditis
p1192
aVmyopathy
p1193
aVanterograde
p1194
aVanticholinergic
p1195
aVcomplementary
p1196
aVcomplement
p1197
aVpropulsive
p1198
aVfurunculosis
p1199
aVspray
p1200
aVinertia
p1201
aVprescription
p1202
aVdysarthria
p1203
aVsputum
p1204
aVliquifilm
p1205
aVphlebitis
p1206
aVantiinfective
p1207
aVexperimental
p1208
aVdysphagia
p1209
aVspotting
p1210
aVadaptation
p1211
aVdoping
p1212
aVhaemeralopia
p1213
aVsouffle
p1214
aVcomplication
p1215
aVelectroencephalography
p1216
aVreduction
p1217
aVamnesia
p1218
aVganglion
p1219
aVleukoplakia
p1220
aVbulbar
p1221
aVrupture
p1222
aVvalvule
p1223
aVconception
p1224
aVafterload
p1225
aVglycosuria
p1226
aVarrhythmogenic
p1227
aVagitation
p1228
aVopiate
p1229
aVtelangiectasia
p1230
aVvasopressor
p1231
aVeczema
p1232
aVsaline
p1233
aVmicrography
p1234
aVanaesthesia
p1235
aVmigraine
p1236
aVparesis
p1237
aVprothrombin
p1238
aVcholinergic
p1239
aVbenign
p1240
aVcolorectal
p1241
aVgrand
p1242
aVfibrosis
p1243
aVoptic
p1244
aVdepersonalization
p1245
aVtransitory
p1246
aValert
p1247
aVosteoarthritis
p1248
aVanhydrous
p1249
aVmacule
p1250
aVcalcification
p1251
aVmyeloma
p1252
aVanalysis
p1253
aVconcrete
p1254
aVteratological
p1255
aVsystolic
p1256
aVclearance
p1257
aVprevention
p1258
aVhypotensive
p1259
aVcompetitive
p1260
aVinactive
p1261
aValternative
p1262
aVcontracture
p1263
aVmalformation
p1264
aVpurulent
p1265
aVloading
p1266
aVdissociation
p1267
aVdisseminate
p1268
aValternate
p1269
aVpruritic
p1270
aVreactivity
p1271
aVtetany
p1272
aVanaphylactic
p1273
aVintrathecal
p1274
aVcurettage
p1275
aVrebound
p1276
aVastringent
p1277
aVparacentesis
p1278
aVaggregation
p1279
aVantiseptic
p1280
aVenuresis
p1281
aVtrismus
p1282
aVcognitive
p1283
aVincidental
p1284
aVantibiogramme
p1285
aVketoacidosis
p1286
aVmanifest
p1287
aVaggravation
p1288
aVindication
p1289
aVproptosis
p1290
aVrheumatoid
p1291
aValimentary
p1292
aVendotoxic
p1293
aVaerobic
p1294
aVpanniculitis
p1295
aVparasympathomimetic
p1296
aVminimal
p1297
aVpatient
p1298
aVneuronal
p1299
aVnasal
p1300
aVcandidiasis
p1301
aVantipyretic
p1302
aVbuccal
p1303
aVobstipation
p1304
aVvaccine
p1305
aVhaemopathy
p1306
aVglaucoma
p1307
aVparonychia
p1308
aVleukaemia
p1309
aVtesticular
p1310
aVtenesmus
p1311
aVposttraumatic
p1312
aVblock
p1313
aVgonorrhoea
p1314
aVmicroorganism
p1315
aVraucousness
p1316
aVbronchoconstriction
p1317
aVmutagenic
p1318
aVmitosis
p1319
aVmultiparous
p1320
aVproportional
p1321
aVconvulsion
p1322
aVdiuresis
p1323
aVdiscoid
p1324
aVpremenstrual
p1325
aValbumin
p1326
aVgynaecomastia
p1327
aVgermicide
p1328
aVbursitis
p1329
aVquiescent
p1330
aVborborygmus
p1331
aVinjection
p1332
aVQT
p1333
aVeclampsia
p1334
aVpsychosis
p1335
aVspasmolytic
p1336
aVbronchopulmonary
p1337
aVmucociliary
p1338
aVtricyclic
p1339
aVarticular
p1340
aVacidity
p1341
aVgynaecological
p1342
aVhyperreflexia
p1343
aVtomography
p1344
aVserological
p1345
aVtinea
p1346
aVmydriatic
p1347
aVoccasional
p1348
aVadjuvant
p1349
aVrevulsive
p1350
aVfaeces
p1351
aVdegenerative
p1352
aValkylate
p1353
aVglycoside
p1354
aVrubella
p1355
aVenergetic
p1356
aVexcitation
p1357
aVtorticollis
p1358
aVendocrine
p1359
aVglomerular
p1360
aVinguinal
p1361
aVpuncture
p1362
aVtendinitis
p1363
aVstruma
p1364
aVantecedent
p1365
aVrhinorrhoea
p1366
aVsedative
p1367
aVthrombosis
p1368
aVperiarthritis
p1369
aVretardation
p1370
aVanogenital
p1371
aVhypothyroidism
p1372
aVerythropoiesis
p1373
aVanthelmintic
p1374
aVpostprandial
p1375
aVperianal
p1376
aVepigastric
p1377
aVsurdity
p1378
aVanergia
p1379
aVradiological
p1380
aVelectrophysiological
p1381
aVfatal
p1382
aVinflammation
p1383
aVnervousness
p1384
aVassay
p1385
aVbradypnoea
p1386
aVperiorbital
p1387
aVhyperstimulation
p1388
aVcardiological
p1389
aVpupillary
p1390
aVnausea
p1391
aVmodulator
p1392
aVmycosis
p1393
aVshock
p1394
aVsupine
p1395
aVpemphigus
p1396
aVcoxalgia
p1397
aValveolitis
p1398
aVobesity
p1399
aVantigen
p1400
aVandrogenic
p1401
aVinsertion
p1402
aVintraocular
p1403
aVsciatica
p1404
aVxanthoma
p1405
aVdepression
p1406
aVcell
p1407
aVanisocoria
p1408
aVfungistatic
p1409
aVinfuse
p1410
aVproliferation
p1411
aVcatheterization
p1412
aVadrenolytic
p1413
aVtremor
p1414
aVperforation
p1415
aVpreeclampsia
p1416
aVextreme
p1417
aVsedimentation
p1418
aVhaemoperfusion
p1419
aVinoperable
p1420
aVionogram
p1421
aViridocyclitis
p1422
aVperistalsis
p1423
aVstabilization
p1424
aVduct
p1425
aVlymphocytic
p1426
aVlenticular
p1427
aVligament
p1428
aVmotor
p1429
aVcausal
p1430
aVperfusion
p1431
aVvehicle
p1432
aVimpotence
p1433
aVpsoriasis
p1434
aVinfection
p1435
aVinsufficiency
p1436
aVpenis
p1437
aVmyasthenia
p1438
aVpotential
p1439
aVresection
p1440
aVhypertonia
p1441
aVprostatitis
p1442
aVhydrolysis
p1443
aVmastocyte
p1444
aVpelvic
p1445
aVatony
p1446
aVcoenzyme
p1447
aVdefibrillation
p1448
aVhyperemesis
p1449
aVseborrhoea
p1450
aVsyndrome
p1451
aVhydrophilic
p1452
aVendoscopy
p1453
aVneurotic
p1454
aVvesicular
p1455
aVsequestra
p1456
aVhyperbaric
p1457
aVvenous
p1458
aVtitre
p1459
aVvisceral
p1460
aVtension
p1461
aVlesion
p1462
aVcycloplegia
p1463
aVtachyphylaxis
p1464
aVincompetence
p1465
aVazotaemia
p1466
aVexfoliation
p1467
aVproductive
p1468
aVmaceration
p1469
aVvagotonia
p1470
aVanabolic
p1471
aVseptic
p1472
aVarthralgia
p1473
aVcorrespond
p1474
aVdilatation
p1475
aVlocomotor
p1476
aVanionic
p1477
aVbacteriostatic
p1478
aVaminoacid
p1479
aVsigmoid
p1480
aVpreclinical
p1481
aVanticoagulant
p1482
aVgonadal
p1483
aVspasmodic
p1484
aVprotease
p1485
aVcatabolism
p1486
aVantipsychotic
p1487
aVprognosis
p1488
aVchemotherapeutic
p1489
aVhypersensitivity
p1490
aVantineoplastic
p1491
aVderivative
p1492
aVhistological
p1493
aVanticonvulsant
p1494
aVstria
p1495
aVhypotrophy
p1496
aVsynaptic
p1497
aVmyocarditis
p1498
aVintertrigo
p1499
aVhaematoma
p1500
aVthyrostatic
p1501
aVintegumentary
p1502
aVhyperglycaemia
p1503
aVhomogeneous
p1504
aVactivate
p1505
aVpleurisy
p1506
aVdeficiency
p1507
aVfrequency
p1508
aVirritation
p1509
aVbetamimetic
p1510
aVtubular
p1511
aVcholangiography
p1512
aVcerebral
p1513
aVevacuation
p1514
aVerythrasma
p1515
aVinduction
p1516
aVsteatorrhoea
p1517
aVwithdrawal
p1518
aVenema
p1519
aVgranulocytopenia
p1520
aVbetablocker
p1521
aVinteraction
p1522
aVadolescent
p1523
aVmusculature
p1524
aVlaxative
p1525
aVtransfer
p1526
aVossicle
p1527
aVembryo
p1528
aVrespond
p1529
aVmegacolon
p1530
aVcollagen
p1531
aVhypomania
p1532
aVthrombolytic
p1533
aVazoospermia
p1534
aVmelaena
p1535
aVhypokalaemia
p1536
aVendemic
p1537
aVthermoregulation
p1538
aVsubacute
p1539
aVclitoral
p1540
aVantiinflammatory
p1541
aVhirsutism
p1542
aVlumen
p1543
aVmicrosporum
p1544
aVprolapse
p1545
aVchemotherapy
p1546
aVneurotransmitter
p1547
aVantimycotic
p1548
aVperipheral
p1549
aVpathogen
p1550
aValopecia
p1551
aVcurarize
p1552
aVbullous
p1553
aVopalescent
p1554
aVmanifestation
p1555
aVsynergistic
p1556
aVmorbidity
p1557
aVretraction
p1558
aVcongenital
p1559
aVaspiration
p1560
aVhemiplegia
p1561
aVpurpura
p1562
aVcompensation
p1563
aVreproduction
p1564
aVpertussis
p1565
aVporphyria
p1566
aVfermentation
p1567
aVcolonopathy
p1568
aVsaluric
p1569
aVcytoplasm
p1570
aVasystole
p1571
aVdementia
p1572
aVcerumen
p1573
aVnocturnal
p1574
aVmyelomatosis
p1575
aVhypothalamic
p1576
aVsenility
p1577
aVmechanism
p1578
aVmesenteric
p1579
aVmethaemoglobinaemia
p1580
aVbacteroid
p1581
aVepithelioma
p1582
aVcalculus
p1583
aVdigestive
p1584
aVdiathermy
p1585
aVpreliminary
p1586
aVintrinsic
p1587
aVaddiction
p1588
aVdorsal
p1589
aVhyperthyroidism
p1590
aVatypical
p1591
aVhydrocephalus
p1592
aVlochia
p1593
aVanorectal
p1594
aVmicrovillus
p1595
aVmonotherapy
p1596
aVmetaplasia
p1597
aVperversion
p1598
aVsublingual
p1599
aVsynovial
p1600
aVcholecystitis
p1601
aVphagocytosis
p1602
aVneurotoxic
p1603
aVamenorrhoea
p1604
aVmalabsorption
p1605
aVterminal
p1606
aVlocoregional
p1607
aVthrombocytosis
p1608
aVlocal
p1609
aVmortality
p1610
aVspermicide
p1611
aVlobe
p1612
aVvascular
p1613
aVarrhythmia
p1614
aVhyperuricaemia
p1615
aVmalaise
p1616
aVantagonist
p1617
aVevolution
p1618
aVmetabolite
p1619
aVdyspepsia
p1620
aVgonadotropic
p1621
aVpustular
p1622
aVquaternary
p1623
aVsediment
p1624
aVhypophyseal
p1625
aVintensity
p1626
aVangioedema
p1627
aVentericcoated
p1628
aVcontusion
p1629
aVreconvalescence
p1630
aVotosclerosis
p1631
aVidentification
p1632
aVpneumopathy
p1633
aVconfusion
p1634
aVbronchus
p1635
aVpsycholeptic
p1636
aVbiosynthesis
p1637
aVhypothesis
p1638
aVcalciuria
p1639
aVhyperkinesia
p1640
aVakathisia
p1641
aVtransplantation
p1642
aVretrograde
p1643
aVnormotensive
p1644
aVplacebo
p1645
aVdecorum
p1646
aVrelevant
p1647
aVneoplastic
p1648
aVinvasive
p1649
aVantioxidant
p1650
aVhabitual
p1651
aVblepharitis
p1652
aVreconstitution
p1653
aVdistil
p1654
aVheredity
p1655
aVsuppuration
p1656
aVpetechiae
p1657
aVdysuria
p1658
aVpulmonary
p1659
aVtorsion
p1660
aVbronchiectasis
p1661
aVmycobacterium
p1662
aVhaemorrhage
p1663
aVmicrocirculation
p1664
aVgenetic
p1665
aVpermanent
p1666
aVfolliculitis
p1667
aVlivedo
p1668
aVanomaly
p1669
aVantifungal
p1670
aVmeningitis
p1671
aVpuberty
p1672
aVtransfusion
p1673
aVmiotic
p1674
aVantitussive
p1675
aVdura
p1676
aVmycological
p1677
aVhepatocellular
p1678
aVeructation
p1679
aVerysipelas
p1680
aVpharmacokinetic
p1681
aVexpiration
p1682
aVmedicinal
p1683
aVlassitude
p1684
aVbiphasic
p1685
aVtoxicomania
p1686
aVbioequivalent
p1687
aVtonic
p1688
aVbactericide
p1689
aVaggressiveness
p1690
aVsarcoma
p1691
aVconserve
p1692
aVorbital
p1693
aVcoronary
p1694
aVadverse
p1695
aVphlebography
p1696
aVinfarction
p1697
aVintravascular
p1698
aVeffect
p1699
aVrenin
p1700
aViritis
p1701
aVmultidose
p1702
aVdiabetes
p1703
aVretard
p1704
aVhypovolaemia
p1705
aVneural
p1706
aVdiphtheria
p1707
aVmuscle
p1708
aVexcessive
p1709
aVtrophic
p1710
aVgastritis
p1711
aVmaxillary
p1712
aVdose
p1713
aVfibrin
p1714
aVvirilization
p1715
aVcoordination
p1716
aVarteriosclerosis
p1717
aVhypoacusis
p1718
aVovum
p1719
aVabsorption
p1720
aVectopic
p1721
aVconjugated
p1722
aVathetosis
p1723
aVpostpartum
p1724
aVangioneurotic
p1725
aVidentical
p1726
aVotitis
p1727
aVhaemolysis
p1728
aVkeloid
p1729
aVfacial
p1730
aVatrophy
p1731
aVplacenta
p1732
aVhepatobiliary
p1733
aVqualitative
p1734
aVspastic
p1735
aVseroconversion
p1736
aVstimulant
p1737
aVtherapeutic
p1738
aVmanic
p1739
aVhydroalcoholic
p1740
aVflush
p1741
aVpH
p1742
aVfoetotoxic
p1743
aVbroad
p1744
aVepistaxis
p1745
aVdetergent
p1746
aVmutation
p1747
aVpreload
p1748
aVlipid
p1749
aVpaediatric
p1750
aVneutrophil
p1751
aVextension
p1752
aVexacerbation
p1753
aVabstinence
p1754
aVmeteorism
p1755
aVsemisynthetic
p1756
aVcompatible
p1757
aVcurative
p1758
aVbacteriological
p1759
aVchronic
p1760
aVreceptor
p1761
aVsinusal
p1762
aVcardiotonic
p1763
aVadditional
p1764
aVelastic
p1765
aVpruritus
p1766
aVcrystallization
p1767
aVintention
p1768
aVangiitis
p1769
aVinspiration
p1770
aVsequelae
p1771
aVfunction
p1772
aVstomatitis
p1773
aVgluten
p1774
aVvasculitis
p1775
aVantioestrogenic
p1776
aVsubjective
p1777
aVexophthalmos
p1778
aVstrabismus
p1779
aVrhagade
p1780
aVantiviral
p1781
aVoncolytic
p1782
aVacuity
p1783
aVrickets
p1784
aVdistribution
p1785
aVmenstruation
p1786
aVinadequate
p1787
aVexogenous
p1788
aVcarbohydrate
p1789
aVuraemia
p1790
aVpyrosis
p1791
aVpermeability
p1792
aVcerebrospinal
p1793
aVanaerobic
p1794
aVpseudotumour
p1795
aVoedema
p1796
aVparathyroid
p1797
aVflexion
p1798
aVtrivalent
p1799
aVtraumatic
p1800
aVvariation
p1801
aVfluor
p1802
aVempiric
p1803
aVperoral
p1804
aVidiopathic
p1805
aVcarcinogenic
p1806
aVcontraceptive
p1807
aVpeptic
p1808
aVshunt
p1809
aVopportunistic
p1810
aVcardiopathy
p1811
aVnecrosis
p1812
aVpersistent
p1813
aVvulvovaginitis
p1814
aVsoporific
p1815
aVdiagnosis
p1816
aVischaemia
p1817
atp1818
Rp1819
.