c__builtin__
set
p0
((lp1
Vsubacut
p2
aVconcept
p3
aVmyositi
p4
aVantacid
p5
aVpolypeptid
p6
aVanaesthesia
p7
aVurinari
p8
aVsignific
p9
aVcorrel
p10
aVanaemia
p11
aVcyanosi
p12
aVretent
p13
aVallergi
p14
aVcognit
p15
aVviscos
p16
aVepidur
p17
aVdepend
p18
aVanterograd
p19
aVhypothalam
p20
aVsensit
p21
aVtricycl
p22
aVosteoporosi
p23
aVparenchyma
p24
aVprostaglandin
p25
aVhyperthermia
p26
aVconcret
p27
aVbronchospasm
p28
aVgastriti
p29
aVarticular
p30
aVfatal
p31
aVdeficit
p32
aVpassiv
p33
aVdigit
p34
aVfiltrat
p35
aVassay
p36
aVrisk
p37
aVcongest
p38
aVreplic
p39
aVerythropoiesi
p40
aVarteri
p41
aVenuresi
p42
aVcapillari
p43
aVsplenomegali
p44
aVantifung
p45
aVpigment
p46
aVmanic
p47
aVmania
p48
aVmechan
p49
aVcalcif
p50
aVrelev
p51
aVnephropathi
p52
aVthrombocytosi
p53
aVcirrhosi
p54
aVhyperkalaemia
p55
aVabstin
p56
aVsedentari
p57
aVshock
p58
aVparesi
p59
aVnecrolysi
p60
aVsuppositori
p61
aVrespiratori
p62
aVeosinophilia
p63
aVcholesterol
p64
aVanal
p65
aVobsess
p66
aVdiarrhoea
p67
aVrecombin
p68
aVhallucin
p69
aVvehicl
p70
aVclaudic
p71
aVflatul
p72
aVulcer
p73
aVmastoid
p74
aVspeci
p75
aVantigen
p76
aVhepatocellular
p77
aVcompens
p78
aVdirect
p79
aVcerebrovascular
p80
aVmicrocircul
p81
aVchemotherapeut
p82
aVorgasm
p83
aVvaccin
p84
aVperfus
p85
aVaggreg
p86
aVcarcinogen
p87
aVsciatica
p88
aVacid
p89
aVantimicrobi
p90
aVprecipit
p91
aVcompat
p92
aVsupervis
p93
aVgonad
p94
aVarteriographi
p95
aVfaecal
p96
aVevacu
p97
aVhomeostasi
p98
aVneg
p99
aVtetani
p100
aVovarian
p101
aVpyrexia
p102
aVcell
p103
aVcondyloma
p104
aVsystol
p105
aVexperiment
p106
aVcardiolog
p107
aVconduct
p108
aVgynaecolog
p109
aVanticoagul
p110
aVcontrast
p111
aVcerebrospin
p112
aVelimin
p113
aVdefici
p114
aVderiv
p115
aVvariat
p116
aVelast
p117
aVaberr
p118
aVgenet
p119
aVendothelium
p120
aVpsoriasi
p121
aVexcess
p122
aVpancreat
p123
aVdrainag
p124
aVherp
p125
aVmodifi
p126
aVotiti
p127
aVinterpret
p128
aVcranial
p129
aVconvers
p130
aVileu
p131
aVprecursor
p132
aVpostop
p133
aVprurit
p134
aVaromat
p135
aVmedica
p136
aVhydrat
p137
aVeffus
p138
aVcutan
p139
aVcari
p140
aVmucocutan
p141
aVtherapeut
p142
aVcholelithiasi
p143
aVextrem
p144
aVcystic
p145
aVmedicin
p146
aVconvalesc
p147
aVdiamet
p148
aVproxim
p149
aVelect
p150
aVduct
p151
aVsolut
p152
aVmodul
p153
aVemot
p154
aVidiopath
p155
aVpurul
p156
aVligament
p157
aVmotor
p158
aVinstabl
p159
aVkinet
p160
aVdecongest
p161
aVmobil
p162
aVcausal
p163
aVselect
p164
aVtransplant
p165
aVretinopathi
p166
aVaggress
p167
aVtubular
p168
aVextravas
p169
aVskelet
p170
aVresorpt
p171
aVprescript
p172
aVoophorectomi
p173
aVpunctur
p174
aVinsult
p175
aVimplic
p176
aVpercept
p177
aVlumen
p178
aVautonom
p179
aVtransderm
p180
aVtachycardia
p181
aVinterindividu
p182
aVhaemostasi
p183
aVneurotransmitt
p184
aVpyoderma
p185
aVtinea
p186
aVrelax
p187
aVirrevers
p188
aVinfus
p189
aVmegaloblast
p190
aVvaricella
p191
aVretrobulbar
p192
aVplexu
p193
aVvisual
p194
aVnosocomi
p195
aVlipoprotein
p196
aVindic
p197
aVintellig
p198
aVdialysi
p199
aVendometriosi
p200
aVasept
p201
aVpuerperium
p202
aVocclus
p203
aVabras
p204
aVreproduct
p205
aVbacteriolog
p206
aVvasoconstrict
p207
aVneurot
p208
aVaetiolog
p209
aVprepar
p210
aVmassag
p211
aVreflux
p212
aVcataract
p213
aVabort
p214
aVobstetr
p215
aVinadequ
p216
aVneurolog
p217
aVcytochrom
p218
aVintercost
p219
aVmelanoma
p220
aVperin
p221
aVradiotherapi
p222
aVmalform
p223
aVendocrin
p224
aVpelvic
p225
aVprophylaxi
p226
aVagent
p227
aVtopic
p228
aVparaplegia
p229
aVmalign
p230
aVminimum
p231
aVimmunolog
p232
aVimmunosuppress
p233
aVpremenstru
p234
aValimentari
p235
aVpreoper
p236
aVserum
p237
aVpalli
p238
aVdifferenti
p239
aVdyspnoea
p240
aVmultipl
p241
aVatrium
p242
aVseptic
p243
aVtoxicolog
p244
aVatoni
p245
aVphlegmon
p246
aVreinfect
p247
aVantidepress
p248
aVintestin
p249
aValkalosi
p250
aVvital
p251
aVcriterion
p252
aVmorbid
p253
aVcontractil
p254
aVtoxic
p255
aVhypertens
p256
aVhypoventil
p257
aVcollaps
p258
aVopiat
p259
aVtension
p260
aVproduct
p261
aVlesion
p262
aVinhal
p263
aVantithrombot
p264
aVmenorrhagia
p265
aVsympathomimet
p266
aVaerob
p267
aVspot
p268
aVsubstanc
p269
aVreflect
p270
aVdysmenorrhoea
p271
aVhumor
p272
aVlax
p273
aVdistort
p274
aVanticholinerg
p275
aVparoxysm
p276
aVcardiac
p277
aVglucos
p278
aVassoci
p279
aVparallel
p280
aVphysic
p281
aVsubcutan
p282
aVembol
p283
aVstabil
p284
aVstress
p285
aVamin
p286
aVdomin
p287
aVplasminogen
p288
aVhypoglycaemia
p289
aVuteru
p290
aVconvuls
p291
aVcorrespond
p292
aVfibrin
p293
aVstasi
p294
aVgestat
p295
aVnarcot
p296
aVcombin
p297
aVresuscit
p298
aVincorpor
p299
aVenter
p300
aVexclus
p301
aVbradycardia
p302
aVincis
p303
aVinterstiti
p304
aVantivir
p305
aVfeedback
p306
aVreservoir
p307
aVsigmoid
p308
aVgradual
p309
aVhydrocephalu
p310
aVinfiltr
p311
aVmucosa
p312
aVanogenit
p313
aVcellul
p314
aVthermal
p315
aViatrogen
p316
aVemolli
p317
aVnullipar
p318
aVincid
p319
aVendem
p320
aVgonorrhoea
p321
aVcortic
p322
aVepilepsi
p323
aVdigest
p324
aVcardiovascular
p325
aVleukocytosi
p326
aVconjunct
p327
aVcystiti
p328
aVmonitor
p329
aVpassag
p330
aVgastrointestin
p331
aVhypnot
p332
aVdysfunct
p333
aVquantit
p334
aVlacer
p335
aVpersist
p336
aVinduct
p337
aVintox
p338
aVtransit
p339
aVrhiniti
p340
aVtoxin
p341
aVejacul
p342
aVadnex
p343
aVmicrobiolog
p344
aVtherapi
p345
aVtorsad
p346
aVspray
p347
aVlibido
p348
aVinsomnia
p349
aVmultipar
p350
aViniti
p351
aVorthopaed
p352
aVincontin
p353
aVreagent
p354
aVsphincter
p355
aVhysterectomi
p356
aVsurgic
p357
aVimmunogen
p358
aVbronchial
p359
aVimmatur
p360
aVintub
p361
aVmononucleosi
p362
aVoccult
p363
aVorthostat
p364
aVtendenc
p365
aVendoscopi
p366
aVoxygen
p367
aVspinal
p368
aVectop
p369
aVanatom
p370
aVcontus
p371
aVrevers
p372
aVoxytoc
p373
aVextracorpor
p374
aVcerebr
p375
aVsupraventricular
p376
aVreactiv
p377
aVhabitu
p378
aVreceptor
p379
aVintervent
p380
aVseroconvers
p381
aVexfoli
p382
aVoligomenorrhoea
p383
aVenterocol
p384
aVepiphys
p385
aVmental
p386
aVfungicid
p387
aVunilater
p388
aVfistula
p389
aVindividu
p390
aVmediat
p391
aVcontinu
p392
aVfractur
p393
aVantihypertens
p394
aVmolecular
p395
aVmetrorrhagia
p396
aVcardiopulmonari
p397
aVextract
p398
aVreduct
p399
aVthrombu
p400
aVagit
p401
aVvariabl
p402
aVdepress
p403
aVvertigo
p404
aVabsorpt
p405
aValcohol
p406
aVinfarct
p407
aVincompet
p408
aVantispasmod
p409
aVvenou
p410
aVtonsil
p411
aVmycolog
p412
aVarrhythmogen
p413
aVresearch
p414
aVremiss
p415
aVfaec
p416
aVadapt
p417
aVparalysi
p418
aVtransfer
p419
aVanorexia
p420
aVpostmenopaus
p421
aVcorrect
p422
aVstatist
p423
aVoedema
p424
aVcholinerg
p425
aVsolvent
p426
aVlinear
p427
aVbarrier
p428
aVpediculosi
p429
aVepigastr
p430
aVstandard
p431
aVdisinfect
p432
aVbase
p433
aVbioavail
p434
aVinvas
p435
aVregion
p436
aVpyelonephr
p437
aVbacteraemia
p438
aVblister
p439
aVallerg
p440
aVioniz
p441
aVmassiv
p442
aVsuppur
p443
aVchronotrop
p444
aValkyl
p445
aVfrequenc
p446
aVdegrad
p447
aVnormotens
p448
aVantituss
p449
aVvestibular
p450
aVperman
p451
aVpenetr
p452
aVmortal
p453
aVregress
p454
aVconfus
p455
aVlymphocyt
p456
aVnephrot
p457
aVchelat
p458
aVvertebr
p459
aVdorsal
p460
aVprevent
p461
aVdistal
p462
aVcollagen
p463
aVhypomania
p464
aVcapac
p465
aVketoacidosi
p466
aVinstruct
p467
aVcorticosteroid
p468
aVsuspens
p469
aVbiosynthesi
p470
aVhypokalaemia
p471
aVmembran
p472
aVhypothyroid
p473
aVglomerulonephr
p474
aVvascul
p475
aVprimari
p476
aVorofaci
p477
aVpulsat
p478
aVdiuret
p479
aVarthralgia
p480
aVconvent
p481
aVchemotherapi
p482
aVinteract
p483
aVcoagul
p484
aVsystem
p485
aVambul
p486
aVhirsut
p487
aVlytic
p488
aVcumul
p489
aVsubclin
p490
aVapnoea
p491
aVmicrosporum
p492
aVtermin
p493
aVbiochem
p494
aVintraven
p495
aVdyskinesia
p496
aVsensori
p497
aVadhes
p498
aVlactat
p499
aVincub
p500
aVpaediatr
p501
aValopecia
p502
aVbronchoconstrict
p503
aVbasal
p504
aVferment
p505
aVconserv
p506
aVtransfus
p507
aVsynergist
p508
aVsymptom
p509
aVhyperventil
p510
aVelectrocardiographi
p511
aVresist
p512
aVhyperplasia
p513
aVcyclic
p514
aVvial
p515
aVregurgit
p516
aVhemiplegia
p517
aVbiolog
p518
aVstructur
p519
aVmesenter
p520
aVpneumonia
p521
aVfemor
p522
aVanxieti
p523
aVpathogen
p524
aVcongenit
p525
aVposit
p526
aVpostur
p527
aVviscer
p528
aVpsycholog
p529
aVthrombolyt
p530
aVaural
p531
aVfixat
p532
aVsupplement
p533
aVanalysi
p534
aVphobia
p535
aVpostnat
p536
aVsequela
p537
aVcytoplasm
p538
aVspectrum
p539
aVresidu
p540
aVdosag
p541
aVcoenzym
p542
aVbacillu
p543
aVnystagmu
p544
aVexpir
p545
aVcannula
p546
aVsomnol
p547
aVemet
p548
aVdementia
p549
aVnecrosi
p550
aVcerumen
p551
aVneurolept
p552
aVpolyval
p553
aVbiliari
p554
aVfertil
p555
aVpostprandi
p556
aVequival
p557
aVhaematolog
p558
aVmicturit
p559
aVstenosi
p560
aVpermeabl
p561
aVpapilloedema
p562
aVosteotomi
p563
aVneutropenia
p564
aVfebril
p565
aVmenopaus
p566
aVdehydr
p567
aVenviron
p568
aVantioestrogen
p569
aVhistolog
p570
aVsubarachnoid
p571
aVexcit
p572
aVparanoia
p573
aVradioact
p574
aVdistribut
p575
aVpreliminari
p576
aVviril
p577
aVobject
p578
aVnasal
p579
aVthyrotoxicosi
p580
aVosmot
p581
aVprolifer
p582
aVtesticular
p583
aVaddict
p584
aVtract
p585
aVphase
p586
aVdermat
p587
aVsegment
p588
aVprematur
p589
aVsynthesi
p590
aVhomogen
p591
aVmigrain
p592
aVrenal
p593
aVeject
p594
aVsoporif
p595
aVdouch
p596
aVlater
p597
aVhyperthyroid
p598
aVhospit
p599
aVintramuscular
p600
aVaerosol
p601
aVabnorm
p602
aVradiographi
p603
aVoccasion
p604
aVdystrophi
p605
aVsteadi
p606
aVrecipi
p607
aVsynapt
p608
aVmetaplasia
p609
aVantiinflammatori
p610
aVphenomenon
p611
aVdysgenesi
p612
aVopportunist
p613
aVpacemak
p614
aVconcomit
p615
aVperfor
p616
aVclearanc
p617
aVempir
p618
aVlethal
p619
aVsynovi
p620
aVabdomen
p621
aVhypoxia
p622
aVcardiomyopathi
p623
aVaffin
p624
aVlatent
p625
aVnadir
p626
aVauscult
p627
aVtrigger
p628
aVnervous
p629
aVactiv
p630
aVinguin
p631
aVantiemet
p632
aVsympathet
p633
aVmicron
p634
aVnocturn
p635
aVfactor
p636
aVrehydr
p637
aVlocal
p638
aVextracellular
p639
aVantioxid
p640
aVkerat
p641
aVcortex
p642
aVretin
p643
aVlobe
p644
aVergot
p645
aVvener
p646
aVepidem
p647
aVarrhythmia
p648
aVhyperuricaemia
p649
aVsecondari
p650
aVperenni
p651
aVpertussi
p652
aVepiderm
p653
aVallergen
p654
aVchemic
p655
aVserolog
p656
aVsinus
p657
aVbiopsi
p658
aVantagonist
p659
aVpharmacokinet
p660
aVantisept
p661
aVoverdos
p662
aVdiabet
p663
aVorgan
p664
aVrectal
p665
aVnonspecif
p666
aVmedian
p667
aVfibril
p668
aVintrins
p669
aVacut
p670
aVerupt
p671
aVintegr
p672
aVadrenerg
p673
aVperian
p674
aVenema
p675
aVflutter
p676
aVoverdosag
p677
aVurographi
p678
aVsediment
p679
aVvision
p680
aVsteril
p681
aVrespond
p682
aVspasmod
p683
aVsymptomat
p684
aVmicroscop
p685
aVvasomotor
p686
aVliquor
p687
aValkalin
p688
aVhepat
p689
aVmyalgia
p690
aVleukocyt
p691
aVcathet
p692
aVschizophrenia
p693
aVsed
p694
aVangioedema
p695
aVmedullari
p696
aVrespons
p697
aVangina
p698
aVpotenc
p699
aVhypercapnia
p700
aVanalog
p701
aVsubject
p702
aVexacerb
p703
aVpolymorph
p704
aVstatu
p705
aVdetect
p706
aVsteatosi
p707
aVgeriatr
p708
aVtransaminas
p709
aVpityriasi
p710
aVmyopathi
p711
aVbactericid
p712
aVfissur
p713
aVphysiolog
p714
aVricket
p715
aVvoluntari
p716
aVlichenif
p717
aVvascular
p718
aVprogress
p719
aVparamet
p720
aVsynov
p721
aVdentit
p722
aValtern
p723
aVdepriv
p724
aVocular
p725
aVasthenia
p726
aVpatholog
p727
aVcervix
p728
aVanaesthet
p729
aVcomplement
p730
aVsalping
p731
aVaspir
p732
aVisol
p733
aVrenovascular
p734
aVandrogen
p735
aVextens
p736
aVincident
p737
aVsteroid
p738
aVarthropathi
p739
aVcomplementari
p740
aVdiverticul
p741
aVtoler
p742
aVindur
p743
aVpopul
p744
aVinfluenza
p745
aVreaction
p746
aVprotect
p747
aVcor
p748
aVhepatotox
p749
aVagonist
p750
aVcycl
p751
aVdecubitu
p752
aVadolesc
p753
aVglycosid
p754
aVcontractur
p755
aVcontract
p756
aVventricular
p757
aVgastroenter
p758
aVprogestogen
p759
aVintrathec
p760
aVplacebo
p761
aVneoplast
p762
aVhydrophil
p763
aVhypovitaminosi
p764
aVload
p765
aVcurv
p766
aVantiepilept
p767
aVdysphagia
p768
aVepisod
p769
aVretrograd
p770
aVenterohepat
p771
aVpsychomotor
p772
aVpulmonari
p773
aVinher
p774
aVpetechia
p775
aVperiod
p776
aVkeloid
p777
aVperor
p778
aVpsychiatr
p779
aVdistil
p780
aVlabil
p781
aVcolon
p782
aVintraindividu
p783
aVataxia
p784
aVperiop
p785
aVantipsychot
p786
aVspasm
p787
aVthrombocytopaenia
p788
aVtorsion
p789
aVturnov
p790
aVbiphas
p791
aVemesi
p792
aVanovulatori
p793
aVhyperlipidaemia
p794
aVclassic
p795
aVanomali
p796
aVacuiti
p797
aVcalculu
p798
aVinsuffici
p799
aVcompon
p800
aVaccumul
p801
aVsecret
p802
aVcontraind
p803
aVpyogen
p804
aVpreeclampsia
p805
aVoptic
p806
aVadvers
p807
aVeros
p808
aVaddit
p809
aVreflex
p810
aVganglion
p811
aVantimycot
p812
aVmucolyt
p813
aVregul
p814
aVinotrop
p815
aVsuppress
p816
aVauditori
p817
aVthromboembol
p818
aVthrombosi
p819
aVcoordin
p820
aVaccident
p821
aVpsychosi
p822
aVerythema
p823
aVpuberti
p824
aVmenarch
p825
aVhernia
p826
aVrepetit
p827
aVneutral
p828
aVpresent
p829
aVtraumat
p830
aVrefractori
p831
aVinhibit
p832
aVident
p833
aVsputum
p834
aVnephriti
p835
aVepicondyl
p836
aVmetastasi
p837
aVpostpartum
p838
aVstomat
p839
aVincarcer
p840
aVabrupt
p841
aVpeni
p842
aVemuls
p843
aVnephrotox
p844
aVprepuc
p845
aVobserv
p846
aVhypertrophi
p847
aVpseudomembran
p848
aVhaemorrhag
p849
aVruptur
p850
aVneuron
p851
aVotorhinolaryngolog
p852
aVmotil
p853
aVelectrolyt
p854
aVtendin
p855
aVventil
p856
aVincompat
p857
aVcolorect
p858
aVthyrostat
p859
aVexud
p860
aVeczema
p861
aVsquamou
p862
aVprotein
p863
aVsymptomatolog
p864
aVendogen
p865
aVtrival
p866
aVmenstruat
p867
aVabscess
p868
aVcardiorespiratori
p869
aVmutat
p870
aVphlebographi
p871
aVminim
p872
aVcomedon
p873
aVantibiot
p874
aVmedic
p875
aVprothrombin
p876
aVneuromuscular
p877
aVbenign
p878
aVaqueou
p879
aVcomplex
p880
aVpreclin
p881
aVpruritu
p882
aVintermitt
p883
aVradiolog
p884
aVsclerosi
p885
aVdocument
p886
aVsalicyl
p887
aVdiastol
p888
aVdilat
p889
aVcoronari
p890
aVcompetit
p891
aVhypersensit
p892
aVfibrosi
p893
aVspondyl
p894
aVoptim
p895
aVintravascular
p896
aVassist
p897
aVeffect
p898
aVrenin
p899
aVadenoma
p900
aVprognosi
p901
aVcystoscopi
p902
aVcurettag
p903
aVparenter
p904
aVhygien
p905
aVcyst
p906
aVextern
p907
aVneonat
p908
aVcatheter
p909
aVorchiti
p910
aVbacteroid
p911
aVcosmet
p912
aVretard
p913
aVadvic
p914
aVneural
p915
aVgenit
p916
aVprotrus
p917
aVmyeloma
p918
aVqualit
p919
aVpercutan
p920
aVcontact
p921
aVsupin
p922
aVwithdraw
p923
aVneuropathi
p924
aVmetabol
p925
aVparadox
p926
aVisoton
p927
aVscabi
p928
aVsporad
p929
aVspastic
p930
aVdyspareunia
p931
aVsclera
p932
aVbilater
p933
aVdose
p934
aVorient
p935
aVpharyng
p936
aVclinic
p937
aVposttraumat
p938
aVanaphylact
p939
aVosteoarthr
p940
aVmaxillari
p941
aVsimultan
p942
aVsystemat
p943
aVimpregn
p944
aVtranscutan
p945
aVamenorrhoea
p946
aVconcentr
p947
aVnausea
p948
aVaura
p949
aVovul
p950
aVatrial
p951
aVrigid
p952
aVinterfer
p953
aVstimul
p954
aVconjug
p955
aVchromosom
p956
aVtheoret
p957
aVexcret
p958
aVidentif
p959
aVexpector
p960
aVgenitourinari
p961
aVdistens
p962
aVcervic
p963
aVsublingu
p964
aVplasma
p965
aVapproxim
p966
aVdeterg
p967
aVcatarrh
p968
aVapplic
p969
aVinspir
p970
aVhypothesi
p971
aVatrophi
p972
aVdisposit
p973
aVrebound
p974
aVtitr
p975
aVhyperstimul
p976
aVtenosynov
p977
aVretract
p978
aVcastrat
p979
aVanteced
p980
aVdeplet
p981
aVfacial
p982
aVdonor
p983
aVinfantil
p984
aVlymphoma
p985
aVrecurr
p986
aVmastiti
p987
aVperipher
p988
aVplacenta
p989
aVinsert
p990
aVdiplopia
p991
aVspecif
p992
aVauricular
p993
aVsyncop
p994
aVencephalopathi
p995
aVexogen
p996
aVmanifest
p997
aVpharmaceut
p998
aVtransform
p999
aVfibrinolyt
p1000
aVprolaps
p1001
aVtic
p1002
aVrheumatoid
p1003
aVcrisi
p1004
aVobstip
p1005
aVobstruct
p1006
aVoxid
p1007
aVmicrosom
p1008
aVsalin
p1009
aVmening
p1010
aVurgenc
p1011
aVneuralgia
p1012
aVcoliti
p1013
aVpsychic
p1014
aVinterv
p1015
aVanabol
p1016
aVdepolar
p1017
aVmaxim
p1018
aVprenat
p1019
aVintoler
p1020
aVdysuria
p1021
aVintern
p1022
aVadequ
p1023
aVcachexia
p1024
aVblephar
p1025
aVoesophag
p1026
aVflush
p1027
aVtremor
p1028
aVinact
p1029
aVintact
p1030
aVmicrogram
p1031
aVsyndrom
p1032
aVviral
p1033
aVanalges
p1034
aVanaerob
p1035
aVresect
p1036
aVaccommod
p1037
aVconstip
p1038
aVtube
p1039
aVnormal
p1040
aVminer
p1041
aVdefaec
p1042
aVurethr
p1043
aVmicroorgan
p1044
aVsubstitut
p1045
aVinject
p1046
aVanticonvuls
p1047
aVcaviti
p1048
aVcondit
p1049
aVcholestasi
p1050
aVcomplic
p1051
aVmalais
p1052
aVpsychogen
p1053
aVrefer
p1054
aVurogenit
p1055
aVimmun
p1056
aVpatient
p1057
aVlipid
p1058
aVanosmia
p1059
aVdecompens
p1060
aVspermatogenesi
p1061
aVdental
p1062
aVuniform
p1063
aVtumour
p1064
aVobes
p1065
aVparasit
p1066
aVbolu
p1067
aVsomat
p1068
aVimpot
p1069
aVvulvovagin
p1070
aVneutrophil
p1071
aVhyperglycaemia
p1072
aVjuvenil
p1073
aVadjuv
p1074
aVanorect
p1075
aVantihistamin
p1076
aVabdomin
p1077
aVglaucoma
p1078
aVantibodi
p1079
aVacn
p1080
aVingest
p1081
aVcontamin
p1082
aVosmolar
p1083
aVpresynapt
p1084
aVarthriti
p1085
aVosteomyel
p1086
aValert
p1087
aVcholecyst
p1088
aVcarcinoma
p1089
aVaden
p1090
aVprostat
p1091
aVpapul
p1092
aVblock
p1093
aVcoitu
p1094
aVroutin
p1095
aVophthalm
p1096
aVeffici
p1097
aVsuperinfect
p1098
aVhaematuria
p1099
aVirrit
p1100
aVosmol
p1101
aVmucopurul
p1102
aVvagin
p1103
aVchronic
p1104
aVamblyopia
p1105
aVirrig
p1106
aVerect
p1107
aVasymptomat
p1108
aVdegen
p1109
aVartifici
p1110
aVurticaria
p1111
aVrestless
p1112
aVautoimmun
p1113
aVinclus
p1114
aVbronchiti
p1115
aVdiscoid
p1116
aVgravid
p1117
aVpredisposit
p1118
aVepidemiolog
p1119
aVcarbohydr
p1120
aVintervertebr
p1121
aVdysplasia
p1122
aVfraction
p1123
aVantipyret
p1124
aVsubcapsular
p1125
aValbumin
p1126
aVamnesia
p1127
aVfunction
p1128
aVgluten
p1129
aVinstil
p1130
aVatop
p1131
aVteratogen
p1132
aVpharmacodynam
p1133
aVmuscl
p1134
aVsubstrat
p1135
aVhaemorrhoid
p1136
aVposterior
p1137
aVdiffus
p1138
aVperinat
p1139
aVprocedur
p1140
aVcytotox
p1141
aVpharmacolog
p1142
aVgastrooesophag
p1143
aVmycot
p1144
aVcardioselect
p1145
aVmetabolit
p1146
aVevolut
p1147
aVparticl
p1148
aVveget
p1149
aVeclampsia
p1150
aVmaximum
p1151
aVleukopenia
p1152
aVrhinorrhoea
p1153
aVaneurysm
p1154
aVabsenc
p1155
aVfundament
p1156
aVtinnitu
p1157
aVdelirium
p1158
aVdissemin
p1159
aVdermatophytosi
p1160
aVvaricos
p1161
aVatyp
p1162
aVclassif
p1163
aVmonotherapi
p1164
aVimmobil
p1165
aVevalu
p1166
aVmycobacterium
p1167
aVtomographi
p1168
aVdiagnosi
p1169
aVmuscular
p1170
aVlumbar
p1171
aVmucociliari
p1172
aVcircul
p1173
aVbursiti
p1174
aVperiton
p1175
aVaggrav
p1176
aVantidiabet
p1177
aVproport
p1178
aVindirect
p1179
aVinvolut
p1180
aVmyocard
p1181
aVdiurnal
p1182
aVtone
p1183
aVconstitut
p1184
aVmalabsorpt
p1185
aVcandidiasi
p1186
aVinvalid
p1187
aVoestrogen
p1188
aVthrombophleb
p1189
aVpsychotrop
p1190
aVvalid
p1191
aVbalan
p1192
aVparathyroid
p1193
aVinfect
p1194
aVtest
p1195
aVextrasystol
p1196
aVimplant
p1197
aVtransmiss
p1198
aVtoxoplasmosi
p1199
aVflexion
p1200
aVdyspepsia
p1201
aVcontracept
p1202
aVlethargi
p1203
aVgranul
p1204
aVdermatolog
p1205
aVthorac
p1206
aVbioequival
p1207
aVhypogonad
p1208
aVhormon
p1209
aVphlebiti
p1210
aVglomerular
p1211
aVintens
p1212
aVintent
p1213
aVpeak
p1214
aVdystonia
p1215
aVvigil
p1216
aVinflamm
p1217
aVlymphadenopathi
p1218
aVenzym
p1219
aVpeptic
p1220
aVshunt
p1221
aVgastroduoden
p1222
aVelectrophysiolog
p1223
aVvasoact
p1224
aVbronchiectasi
p1225
aVrecuper
p1226
aVepisiotomi
p1227
aVorbit
p1228
aVophthalmolog
p1229
aVnocturia
p1230
aVossicl
p1231
aVpotenti
p1232
aVbroad
p1233
aVnutrient
p1234
aVischaemia
p1235
aVoral
p1236
aVhypotens
p1237
aVadult
p1238
atp1239
Rp1240
.