ccollections
defaultdict
p0
(c__builtin__
list
p1
tp2
Rp3
Vsubacut
p4
(lp5
sVconcept
p6
(lp7
sVmyositi
p8
(lp9
sVpolypeptid
p10
(lp11
sVanaesthesia
p12
(lp13
sVurinari
p14
(lp15
sVsignific
p16
(lp17
sVcorrel
p18
(lp19
sVretent
p20
(lp21
sVretract
p22
(lp23
sVallergi
p24
(lp25
sVcognit
p26
(lp27
sVviscos
p28
(lp29
sVepidur
p30
(lp31
sVdepend
p32
(lp33
sVadvic
p34
(lp35
sVhypothalam
p36
(lp37
sVsensit
p38
(lp39
sVtricycl
p40
(lp41
sVosteoporosi
p42
(lp43
sVparenchyma
p44
(lp45
sVprostaglandin
p46
(lp47
sVhyperthermia
p48
(lp49
S'aneurysm'
p50
aS'parenchyma'
p51
asVconcret
p52
(lp53
sVgastriti
p54
(lp55
sVfatal
p56
(lp57
S'cardiac'
p58
aS'vascular'
p59
asVdecubitu
p60
(lp61
sVpassiv
p62
(lp63
sVdigit
p64
(lp65
sVerythropoiesi
p66
(lp67
sVassay
p68
(lp69
sVrisk
p70
(lp71
sVcongest
p72
(lp73
sVreplic
p74
(lp75
sVarteri
p76
(lp77
sVenuresi
p78
(lp79
sVcapillari
p80
(lp81
sVsplenomegali
p82
(lp83
sVantifung
p84
(lp85
sVpigment
p86
(lp87
sVmanic
p88
(lp89
S'elect'
p90
asVmania
p91
(lp92
sVmechan
p93
(lp94
sVmuscular
p95
(lp96
S'product'
p97
asVcalcif
p98
(lp99
sVrelev
p100
(lp101
sVnephropathi
p102
(lp103
sVthrombocytosi
p104
(lp105
sVtraumat
p106
(lp107
sVhyperkalaemia
p108
(lp109
S'hypokalaemia'
p110
asVabstin
p111
(lp112
sVsedentari
p113
(lp114
sVshock
p115
(lp116
sVparesi
p117
(lp118
sVnecrolysi
p119
(lp120
sVaetiolog
p121
(lp122
sVrespiratori
p123
(lp124
sVeosinophilia
p125
(lp126
sVcholesterol
p127
(lp128
S'protein'
p129
aS'serum'
p130
aS'plasma'
p131
aS'lipoprotein'
p132
asVanal
p133
(lp134
S'subcapsular'
p135
asVdiarrhoea
p136
(lp137
S'reflux'
p138
asVrecombin
p139
(lp140
sVhallucin
p141
(lp142
sVvehicl
p143
(lp144
sVclaudic
p145
(lp146
sVflatul
p147
(lp148
sVulcer
p149
(lp150
S'eclampsia'
p151
asVmastoid
p152
(lp153
sVspeci
p154
(lp155
sVantigen
p156
(lp157
sVcompens
p158
(lp159
sVdirect
p160
(lp161
sVcerebrovascular
p162
(lp163
g59
asVsynergist
p164
(lp165
sVchemotherapeut
p166
(lp167
sVorgasm
p168
(lp169
S'rebound'
p170
asVvaccin
p171
(lp172
sVparalysi
p173
(lp174
sVaggreg
p175
(lp176
sVsciatica
p177
(lp178
S'shock'
p179
asVacid
p180
(lp181
sVprecipit
p182
(lp183
sVcompat
p184
(lp185
sVsupervis
p186
(lp187
sVgonad
p188
(lp189
sVfaecal
p190
(lp191
S'occult'
p192
aS'clinic'
p193
asVevacu
p194
(lp195
sVhomeostasi
p196
(lp197
sVneg
p198
(lp199
sVovarian
p200
(lp201
sVuniform
p202
(lp203
S'direct'
p204
asVcell
p205
(lp206
S'neutrophil'
p207
asVcondyloma
p208
(lp209
sVsystol
p210
(lp211
sVexperiment
p212
(lp213
S'enter'
p214
asVcardiolog
p215
(lp216
sVconduct
p217
(lp218
S'document'
p219
asVgynaecolog
p220
(lp221
sVanticoagul
p222
(lp223
sVcontrast
p224
(lp225
sVcerebrospin
p226
(lp227
sVelimin
p228
(lp229
sVdefici
p230
(lp231
sVderiv
p232
(lp233
sVvariat
p234
(lp235
sVdentit
p236
(lp237
sVasthenia
p238
(lp239
sVgenet
p240
(lp241
sVendothelium
p242
(lp243
sVbiliari
p244
(lp245
sVexcess
p246
(lp247
S'subarachnoid'
p248
asVpancreat
p249
(lp250
sVtremor
p251
(lp252
sVherp
p253
(lp254
sVmodifi
p255
(lp256
sVotiti
p257
(lp258
sVinterpret
p259
(lp260
sVtransfer
p261
(lp262
sVcranial
p263
(lp264
sVconvers
p265
(lp266
sVileu
p267
(lp268
sVprecursor
p269
(lp270
sVpostop
p271
(lp272
sVprurit
p273
(lp274
sVaromat
p275
(lp276
sVmedica
p277
(lp278
sVhydrat
p279
(lp280
sVlater
p281
(lp282
sVeffus
p283
(lp284
sVantimicrobi
p285
(lp286
sVcari
p287
(lp288
sVmucocutan
p289
(lp290
sVtherapeut
p291
(lp292
sVcholelithiasi
p293
(lp294
sVextrem
p295
(lp296
sVaura
p297
(lp298
S'tinea'
p299
asVcystic
p300
(lp301
S'colon'
p302
asVmedicin
p303
(lp304
sVconvalesc
p305
(lp306
sVdiamet
p307
(lp308
sVproxim
p309
(lp310
sVelect
p311
(lp312
sVdetect
p313
(lp314
S'valid'
p315
aS'protect'
p316
aS'melanoma'
p317
asVduct
p318
(lp319
S'trigger'
p320
asVsolut
p321
(lp322
sVmodul
p323
(lp324
sVemot
p325
(lp326
sVidiopath
p327
(lp328
sVpurul
p329
(lp330
sVcholecyst
p331
(lp332
sVligament
p333
(lp334
S'posterior'
p335
asVmening
p336
(lp337
sVinstabl
p338
(lp339
sVendocrin
p340
(lp341
sVdecongest
p342
(lp343
sVmobil
p344
(lp345
sVcausal
p346
(lp347
S'indirect'
p348
asVselect
p349
(lp350
sVtransplant
p351
(lp352
S'renal'
p353
aS'pelvic'
p354
aS'cerebrovascular'
p355
asVretinopathi
p356
(lp357
sVaggress
p358
(lp359
sVobstruct
p360
(lp361
sVextravas
p362
(lp363
sVskelet
p364
(lp365
sVresorpt
p366
(lp367
sVprescript
p368
(lp369
sVoophorectomi
p370
(lp371
sVpunctur
p372
(lp373
sVinsult
p374
(lp375
g302
asVimplic
p376
(lp377
sVmassag
p378
(lp379
sVautonom
p380
(lp381
sVtransderm
p382
(lp383
sVtachycardia
p384
(lp385
S'suppress'
p386
aS'flutter'
p387
asVinterindividu
p388
(lp389
sVhaemostasi
p390
(lp391
sVneurotransmitt
p392
(lp393
sVtinea
p394
(lp395
sVrelax
p396
(lp397
sVincident
p398
(lp399
g355
asVinfus
p400
(lp401
sVmegaloblast
p402
(lp403
sVplexu
p404
(lp405
sVvisual
p406
(lp407
S'analog'
p408
asVnosocomi
p409
(lp410
sVlipoprotein
p411
(lp412
sVadult
p413
(lp414
sVdialysi
p415
(lp416
sVendometriosi
p417
(lp418
sVasept
p419
(lp420
sVpuerperium
p421
(lp422
sVocclus
p423
(lp424
sVabras
p425
(lp426
sVreproduct
p427
(lp428
sVoedema
p429
(lp430
sVbacteriolog
p431
(lp432
sVvasoconstrict
p433
(lp434
sVneurot
p435
(lp436
sVsuppositori
p437
(lp438
sVprepar
p439
(lp440
sVreflux
p441
(lp442
sVabort
p443
(lp444
sVobstetr
p445
(lp446
sVinadequ
p447
(lp448
sVneurolog
p449
(lp450
sVcytochrom
p451
(lp452
sVintercost
p453
(lp454
sVsublingu
p455
(lp456
sVatrium
p457
(lp458
S'fraction'
p459
aS'ventricular'
p460
aS'nadir'
p461
aS'glomerular'
p462
asVradiotherapi
p463
(lp464
sVmalform
p465
(lp466
sVkinet
p467
(lp468
sVpelvic
p469
(lp470
S'transplant'
p471
asVprophylaxi
p472
(lp473
sVagent
p474
(lp475
sVtopic
p476
(lp477
sVmalign
p478
(lp479
sVminimum
p480
(lp481
sVimmunolog
p482
(lp483
sVimmunosuppress
p484
(lp485
sVpremenstru
p486
(lp487
sVtoler
p488
(lp489
sVpreoper
p490
(lp491
sVantidepress
p492
(lp493
S'depress'
p494
aS'select'
p495
asVpalli
p496
(lp497
sVadrenerg
p498
(lp499
sVdifferenti
p500
(lp501
sVdyspnoea
p502
(lp503
sVmultipl
p504
(lp505
sVseptic
p506
(lp507
sVtoxicolog
p508
(lp509
sVpotenti
p510
(lp511
sVatoni
p512
(lp513
sVphlegmon
p514
(lp515
sVanogenit
p516
(lp517
sVserum
p518
(lp519
g131
asVintestin
p520
(lp521
sValkalosi
p522
(lp523
sVvital
p524
(lp525
sVcriterion
p526
(lp527
sVmorbid
p528
(lp529
sVcontractil
p530
(lp531
sVtoxic
p532
(lp533
sVhypertens
p534
(lp535
sVparaplegia
p536
(lp537
sVcollaps
p538
(lp539
sVopiat
p540
(lp541
sVtension
p542
(lp543
sVproduct
p544
(lp545
sVlesion
p546
(lp547
S'oxygen'
p548
aS'lumen'
p549
asVinhal
p550
(lp551
sVantithrombot
p552
(lp553
sVmenorrhagia
p554
(lp555
S'tumour'
p556
aS'tachycardia'
p557
aS'bronchial'
p558
asVsympathomimet
p559
(lp560
sVaerob
p561
(lp562
sVspot
p563
(lp564
sVsubstanc
p565
(lp566
sVreflect
p567
(lp568
sVlax
p569
(lp570
sVdistort
p571
(lp572
sVanticholinerg
p573
(lp574
sVparoxysm
p575
(lp576
sVcardiac
p577
(lp578
g59
aS'fatal'
p579
aS'cardiovascular'
p580
asVglucos
p581
(lp582
sVassoci
p583
(lp584
sVparallel
p585
(lp586
g214
aS'experiment'
p587
asVphysic
p588
(lp589
sVsubcutan
p590
(lp591
sVembol
p592
(lp593
sVstabil
p594
(lp595
sVstress
p596
(lp597
S'phenomenon'
p598
aS'complex'
p599
asVamin
p600
(lp601
sVdomin
p602
(lp603
sVhypoglycaemia
p604
(lp605
sVuteru
p606
(lp607
sVconvuls
p608
(lp609
sVcorrespond
p610
(lp611
sVstasi
p612
(lp613
sVgestat
p614
(lp615
sVnarcot
p616
(lp617
sVcombin
p618
(lp619
sVresuscit
p620
(lp621
sVincorpor
p622
(lp623
sVenter
p624
(lp625
sVexclus
p626
(lp627
sVbacteroid
p628
(lp629
sVbradycardia
p630
(lp631
sVincis
p632
(lp633
sVinterstiti
p634
(lp635
sVantivir
p636
(lp637
sVfeedback
p638
(lp639
sVreservoir
p640
(lp641
sVsigmoid
p642
(lp643
g248
asVgradual
p644
(lp645
S'peak'
p646
asVarteriographi
p647
(lp648
sVinfiltr
p649
(lp650
sVmucosa
p651
(lp652
S'torsion'
p653
asVcellul
p654
(lp655
sVthermal
p656
(lp657
S'vestibular'
p658
asViatrogen
p659
(lp660
sVemolli
p661
(lp662
sVnullipar
p663
(lp664
sVincid
p665
(lp666
sVendem
p667
(lp668
sVgonorrhoea
p669
(lp670
sVcortic
p671
(lp672
sVantacid
p673
(lp674
sVdigest
p675
(lp676
sVparamet
p677
(lp678
sVconjunct
p679
(lp680
sVcystiti
p681
(lp682
sVmonitor
p683
(lp684
sVpassag
p685
(lp686
sVgastrointestin
p687
(lp688
sVhypnot
p689
(lp690
sVdysfunct
p691
(lp692
sVquantit
p693
(lp694
sVlacer
p695
(lp696
sVpersist
p697
(lp698
sVanterograd
p699
(lp700
sVtransit
p701
(lp702
sVrhiniti
p703
(lp704
sVtoxin
p705
(lp706
S'complement'
p707
asVejacul
p708
(lp709
sVadnex
p710
(lp711
sVmicrobiolog
p712
(lp713
sVtherapi
p714
(lp715
sVtorsad
p716
(lp717
sVlibido
p718
(lp719
sVinsomnia
p720
(lp721
sVmultipar
p722
(lp723
sVhypoventil
p724
(lp725
sVorthopaed
p726
(lp727
sVincontin
p728
(lp729
sVreagent
p730
(lp731
sVsphincter
p732
(lp733
sVhysterectomi
p734
(lp735
sVsyndrom
p736
(lp737
sVsurgic
p738
(lp739
sVimmunogen
p740
(lp741
sVbronchial
p742
(lp743
g557
asVimmatur
p744
(lp745
sVintub
p746
(lp747
sVmononucleosi
p748
(lp749
sVoccult
p750
(lp751
S'faecal'
p752
asVorthostat
p753
(lp754
sVtendenc
p755
(lp756
sVendoscopi
p757
(lp758
sVoxygen
p759
(lp760
g549
asVspinal
p761
(lp762
sVectop
p763
(lp764
sVanatom
p765
(lp766
sVcontus
p767
(lp768
sVrevers
p769
(lp770
sVextracorpor
p771
(lp772
sVaccommod
p773
(lp774
sVreactiv
p775
(lp776
sVhabitu
p777
(lp778
sVdepriv
p779
(lp780
sVreceptor
p781
(lp782
S'antagonist'
p783
asVintervent
p784
(lp785
sVseroconvers
p786
(lp787
sVexfoli
p788
(lp789
sVenterocol
p790
(lp791
sVmental
p792
(lp793
sVcastrat
p794
(lp795
sVintervertebr
p796
(lp797
sVfistula
p798
(lp799
sVindividu
p800
(lp801
sVcontinu
p802
(lp803
sVfractur
p804
(lp805
sVantihypertens
p806
(lp807
sVmetrorrhagia
p808
(lp809
sVcardiopulmonari
p810
(lp811
sVtubular
p812
(lp813
g207
aS'cell'
p814
asVorient
p815
(lp816
sVthrombu
p817
(lp818
sVagit
p819
(lp820
sVvariabl
p821
(lp822
sVdepress
p823
(lp824
g495
aS'antidepress'
p825
asVvertigo
p826
(lp827
S'angioedema'
p828
asVabsorpt
p829
(lp830
sValcohol
p831
(lp832
sVinfarct
p833
(lp834
sVincompet
p835
(lp836
sVantispasmod
p837
(lp838
sVinduct
p839
(lp840
sVtonsil
p841
(lp842
sVmycolog
p843
(lp844
sVarrhythmogen
p845
(lp846
sVresearch
p847
(lp848
sVremiss
p849
(lp850
sVfaec
p851
(lp852
sVadapt
p853
(lp854
sVauscult
p855
(lp856
sVanorexia
p857
(lp858
sVpostmenopaus
p859
(lp860
sVcorrect
p861
(lp862
sVobsess
p863
(lp864
sVsensori
p865
(lp866
sVcholinerg
p867
(lp868
sVsolvent
p869
(lp870
sVlinear
p871
(lp872
sVbarrier
p873
(lp874
sVpediculosi
p875
(lp876
sVepigastr
p877
(lp878
sVstandard
p879
(lp880
S'antacid'
p881
asVdisinfect
p882
(lp883
sVbase
p884
(lp885
sVbioavail
p886
(lp887
sVinvas
p888
(lp889
sVregion
p890
(lp891
sVpyelonephr
p892
(lp893
sVbacteraemia
p894
(lp895
sVblister
p896
(lp897
g214
asVallerg
p898
(lp899
sVioniz
p900
(lp901
sVgenitourinari
p902
(lp903
sVsuppur
p904
(lp905
sVchronotrop
p906
(lp907
sValkyl
p908
(lp909
sVfrequenc
p910
(lp911
sVnormotens
p912
(lp913
sVvestibular
p914
(lp915
sVperman
p916
(lp917
sVpenetr
p918
(lp919
sVmortal
p920
(lp921
sVregress
p922
(lp923
sVconfus
p924
(lp925
sVpapul
p926
(lp927
sVlymphocyt
p928
(lp929
sVparenter
p930
(lp931
sVvertebr
p932
(lp933
sVprevent
p934
(lp935
sVdistal
p936
(lp937
sVcollagen
p938
(lp939
sVcyst
p940
(lp941
sVhypomania
p942
(lp943
S'abscess'
p944
asVcapac
p945
(lp946
sVketoacidosi
p947
(lp948
sVinstruct
p949
(lp950
sVepiphys
p951
(lp952
sVsuspens
p953
(lp954
sVbiosynthesi
p955
(lp956
sVhypokalaemia
p957
(lp958
sVmembran
p959
(lp960
sVhypothyroid
p961
(lp962
S'parathyroid'
p963
asVmassiv
p964
(lp965
sVvascul
p966
(lp967
sVprimari
p968
(lp969
sVorofaci
p970
(lp971
sVpulsat
p972
(lp973
sVdiuret
p974
(lp975
sVpapilloedema
p976
(lp977
sVconvent
p978
(lp979
sVchemotherapi
p980
(lp981
sVinteract
p982
(lp983
sVcoagul
p984
(lp985
sVsystem
p986
(lp987
sVambul
p988
(lp989
sVglomerulonephr
p990
(lp991
sVcumul
p992
(lp993
sVanaemia
p994
(lp995
sVlumen
p996
(lp997
g548
asVmicrosporum
p998
(lp999
S'deficit'
p1000
asVtermin
p1001
(lp1002
sVbiochem
p1003
(lp1004
sVmolecular
p1005
(lp1006
sVdyskinesia
p1007
(lp1008
sVcyanosi
p1009
(lp1010
sVadhes
p1011
(lp1012
sVlactat
p1013
(lp1014
sVincub
p1015
(lp1016
sVapnoea
p1017
(lp1018
sValopecia
p1019
(lp1020
sVbasal
p1021
(lp1022
sVferment
p1023
(lp1024
sVconserv
p1025
(lp1026
sVtransfus
p1027
(lp1028
sVsymptom
p1029
(lp1030
g646
asVhyperventil
p1031
(lp1032
sVelectrocardiographi
p1033
(lp1034
sVleukocyt
p1035
(lp1036
sVintraven
p1037
(lp1038
sVcyclic
p1039
(lp1040
sVvial
p1041
(lp1042
sVregurgit
p1043
(lp1044
sVhemiplegia
p1045
(lp1046
sVbiolog
p1047
(lp1048
sVstructur
p1049
(lp1050
sVpneumonia
p1051
(lp1052
S'carcinoma'
p1053
asVfemor
p1054
(lp1055
sVanxieti
p1056
(lp1057
sVpathogen
p1058
(lp1059
sVarthralgia
p1060
(lp1061
sVposit
p1062
(lp1063
sVpostur
p1064
(lp1065
sVhirsut
p1066
(lp1067
sVpsycholog
p1068
(lp1069
sViniti
p1070
(lp1071
sVoligomenorrhoea
p1072
(lp1073
S'amenorrhoea'
p1074
asVsupplement
p1075
(lp1076
sVretrograd
p1077
(lp1078
sVphobia
p1079
(lp1080
sVpostnat
p1081
(lp1082
sVsequela
p1083
(lp1084
S'neuralgia'
p1085
asVcytoplasm
p1086
(lp1087
sVunilater
p1088
(lp1089
sVspectrum
p1090
(lp1091
S'influenza'
p1092
asVdosag
p1093
(lp1094
sVcoenzym
p1095
(lp1096
sVbacillu
p1097
(lp1098
sVnystagmu
p1099
(lp1100
sVexpir
p1101
(lp1102
sVventil
p1103
(lp1104
sVemet
p1105
(lp1106
sVcardiorespiratori
p1107
(lp1108
sVnecrosi
p1109
(lp1110
sVcerumen
p1111
(lp1112
sVneurolept
p1113
(lp1114
sVpolyval
p1115
(lp1116
sVfertil
p1117
(lp1118
sVpostprandi
p1119
(lp1120
sVequival
p1121
(lp1122
sVhaematolog
p1123
(lp1124
sVmicturit
p1125
(lp1126
sVstenosi
p1127
(lp1128
sVpercutan
p1129
(lp1130
sVcirrhosi
p1131
(lp1132
sVextrasystol
p1133
(lp1134
sVosteotomi
p1135
(lp1136
sVneutropenia
p1137
(lp1138
sVfebril
p1139
(lp1140
sVindic
p1141
(lp1142
sVcomplementari
p1143
(lp1144
sVdehydr
p1145
(lp1146
sVenviron
p1147
(lp1148
sVantioestrogen
p1149
(lp1150
sVhistolog
p1151
(lp1152
sVanalysi
p1153
(lp1154
sVexcit
p1155
(lp1156
sVradioact
p1157
(lp1158
sVdistribut
p1159
(lp1160
sVdisposit
p1161
(lp1162
sVincarcer
p1163
(lp1164
sVobject
p1165
(lp1166
S'present'
p1167
asVnasal
p1168
(lp1169
S'spray'
p1170
aS'intramuscular'
p1171
asVthyrotoxicosi
p1172
(lp1173
sVosmot
p1174
(lp1175
sVprolifer
p1176
(lp1177
sVcarcinoma
p1178
(lp1179
S'dysplasia'
p1180
asVaddict
p1181
(lp1182
sVtract
p1183
(lp1184
sVphase
p1185
(lp1186
sVdermat
p1187
(lp1188
sVsegment
p1189
(lp1190
S'block'
p1191
asVprematur
p1192
(lp1193
sVdorsal
p1194
(lp1195
sVhomogen
p1196
(lp1197
sVmigrain
p1198
(lp1199
sVrenal
p1200
(lp1201
g471
ag59
asVcongenit
p1202
(lp1203
sVsoporif
p1204
(lp1205
sVdouch
p1206
(lp1207
sVpyrexia
p1208
(lp1209
g462
asVhyperthyroid
p1210
(lp1211
sVhospit
p1212
(lp1213
sVintramuscular
p1214
(lp1215
g1170
asVaerosol
p1216
(lp1217
sVabnorm
p1218
(lp1219
sVoccasion
p1220
(lp1221
sVdystrophi
p1222
(lp1223
sVsteadi
p1224
(lp1225
sVrecipi
p1226
(lp1227
sVsynapt
p1228
(lp1229
sVchelat
p1230
(lp1231
sVantiinflammatori
p1232
(lp1233
sVphenomenon
p1234
(lp1235
S'progress'
p1236
asVdysgenesi
p1237
(lp1238
sVopportunist
p1239
(lp1240
sVpacemak
p1241
(lp1242
sVcytotox
p1243
(lp1244
sVconcomit
p1245
(lp1246
sVneuromuscular
p1247
(lp1248
sVperfor
p1249
(lp1250
sVpercept
p1251
(lp1252
sVneonat
p1253
(lp1254
sVclearanc
p1255
(lp1256
sVempir
p1257
(lp1258
sVlethal
p1259
(lp1260
g317
asVcarcinogen
p1261
(lp1262
sVsupraventricular
p1263
(lp1264
sVhypoxia
p1265
(lp1266
sVmesenter
p1267
(lp1268
sVaffin
p1269
(lp1270
sVlatent
p1271
(lp1272
sVnadir
p1273
(lp1274
S'atrium'
p1275
asVnervous
p1276
(lp1277
sVvaricella
p1278
(lp1279
sVparanoia
p1280
(lp1281
sVantiemet
p1282
(lp1283
sVsympathet
p1284
(lp1285
sVmicron
p1286
(lp1287
sVnocturn
p1288
(lp1289
sVfactor
p1290
(lp1291
sVrehydr
p1292
(lp1293
sVlocal
p1294
(lp1295
sVextracellular
p1296
(lp1297
S'microgram'
p1298
asVantioxid
p1299
(lp1300
sVkerat
p1301
(lp1302
sVcortex
p1303
(lp1304
sVperin
p1305
(lp1306
sVlobe
p1307
(lp1308
sVergot
p1309
(lp1310
sVvener
p1311
(lp1312
sVepidem
p1313
(lp1314
sVarrhythmia
p1315
(lp1316
sVhyperuricaemia
p1317
(lp1318
sVsecondari
p1319
(lp1320
sVperenni
p1321
(lp1322
sVhyperplasia
p1323
(lp1324
sVcannula
p1325
(lp1326
S'insert'
p1327
asVallergen
p1328
(lp1329
sVchemic
p1330
(lp1331
sVserolog
p1332
(lp1333
sVsinus
p1334
(lp1335
sVbiopsi
p1336
(lp1337
sVantagonist
p1338
(lp1339
S'receptor'
p1340
asVpharmacokinet
p1341
(lp1342
sVhydrocephalu
p1343
(lp1344
sVextract
p1345
(lp1346
g97
asVoverdos
p1347
(lp1348
sVdyspepsia
p1349
(lp1350
sVorgan
p1351
(lp1352
S'collagen'
p1353
asVrectal
p1354
(lp1355
sVnonspecif
p1356
(lp1357
sVmedian
p1358
(lp1359
sVoxytoc
p1360
(lp1361
sVintrins
p1362
(lp1363
sVacut
p1364
(lp1365
sVerupt
p1366
(lp1367
sVintegr
p1368
(lp1369
sVmediat
p1370
(lp1371
sVperian
p1372
(lp1373
sVenema
p1374
(lp1375
sVflutter
p1376
(lp1377
sVoverdosag
p1378
(lp1379
sVurographi
p1380
(lp1381
sVsediment
p1382
(lp1383
sVvision
p1384
(lp1385
sVsteril
p1386
(lp1387
sVrespond
p1388
(lp1389
sVspasmod
p1390
(lp1391
sVcorticosteroid
p1392
(lp1393
S'steroid'
p1394
aS'oral'
p1395
asVmicroscop
p1396
(lp1397
sVencephalopathi
p1398
(lp1399
sVliquor
p1400
(lp1401
sValkalin
p1402
(lp1403
sVhepat
p1404
(lp1405
sVnausea
p1406
(lp1407
sVmyalgia
p1408
(lp1409
S'toxic'
p1410
aS'alcohol'
p1411
asVresist
p1412
(lp1413
sVcathet
p1414
(lp1415
sVschizophrenia
p1416
(lp1417
sVsed
p1418
(lp1419
sVangioedema
p1420
(lp1421
sVmedullari
p1422
(lp1423
sVrespons
p1424
(lp1425
sVangina
p1426
(lp1427
S'ischaemia'
p1428
asVpotenc
p1429
(lp1430
sVhypercapnia
p1431
(lp1432
sVanalog
p1433
(lp1434
S'visual'
p1435
asVsubject
p1436
(lp1437
sVexacerb
p1438
(lp1439
sVpolymorph
p1440
(lp1441
sVstatu
p1442
(lp1443
sVsubarachnoid
p1444
(lp1445
S'sigmoid'
p1446
asVsteatosi
p1447
(lp1448
sVgeriatr
p1449
(lp1450
sVtransaminas
p1451
(lp1452
sVmyopathi
p1453
(lp1454
sVbactericid
p1455
(lp1456
sVphysiolog
p1457
(lp1458
sVricket
p1459
(lp1460
sVvoluntari
p1461
(lp1462
sVlichenif
p1463
(lp1464
sVvascular
p1465
(lp1466
g58
ag355
ag579
aS'manifest'
p1467
ag580
asVprogress
p1468
(lp1469
S'discoid'
p1470
asVcardiovascular
p1471
(lp1472
g58
ag59
ag579
asVsynov
p1473
(lp1474
sValtern
p1475
(lp1476
sVvasomotor
p1477
(lp1478
S'motor'
p1479
aS'mania'
p1480
aS'classic'
p1481
asVocular
p1482
(lp1483
sVsalping
p1484
(lp1485
sVpatholog
p1486
(lp1487
sVtetani
p1488
(lp1489
sVanaesthet
p1490
(lp1491
sVcomplement
p1492
(lp1493
sVperfus
p1494
(lp1495
sVaspir
p1496
(lp1497
sVisol
p1498
(lp1499
sVrenovascular
p1500
(lp1501
sVandrogen
p1502
(lp1503
sVextens
p1504
(lp1505
sVspray
p1506
(lp1507
S'nasal'
p1508
ag1171
asVsteroid
p1509
(lp1510
sVarthropathi
p1511
(lp1512
sVintox
p1513
(lp1514
sVantidiabet
p1515
(lp1516
sVindur
p1517
(lp1518
sVviscer
p1519
(lp1520
sVpopul
p1521
(lp1522
sVinfluenza
p1523
(lp1524
S'spectrum'
p1525
asVreaction
p1526
(lp1527
sVprotect
p1528
(lp1529
S'detect'
p1530
asVcor
p1531
(lp1532
sVfixat
p1533
(lp1534
sVhepatotox
p1535
(lp1536
sVagonist
p1537
(lp1538
sVcycl
p1539
(lp1540
sVthrombolyt
p1541
(lp1542
sVadolesc
p1543
(lp1544
sVglycosid
p1545
(lp1546
sVcontractur
p1547
(lp1548
sVcontract
p1549
(lp1550
sVventricular
p1551
(lp1552
g459
asVgastroenter
p1553
(lp1554
sVprogestogen
p1555
(lp1556
S'oestrogen'
p1557
asVdelirium
p1558
(lp1559
sVsymptomat
p1560
(lp1561
sVpyoderma
p1562
(lp1563
g1092
aS'tube'
p1564
asVneoplast
p1565
(lp1566
sVdiabet
p1567
(lp1568
sVload
p1569
(lp1570
sVcurv
p1571
(lp1572
sVantiepilept
p1573
(lp1574
sVdysphagia
p1575
(lp1576
sVepisod
p1577
(lp1578
sVenterohepat
p1579
(lp1580
sVpsychomotor
p1581
(lp1582
S'transit'
p1583
asVpulmonari
p1584
(lp1585
sVinher
p1586
(lp1587
sVpetechia
p1588
(lp1589
sVhyperstimul
p1590
(lp1591
sVkeloid
p1592
(lp1593
sVperor
p1594
(lp1595
sVresidu
p1596
(lp1597
sVdistil
p1598
(lp1599
sVlabil
p1600
(lp1601
sVcolon
p1602
(lp1603
S'toxin'
p1604
aS'cystic'
p1605
asVdrainag
p1606
(lp1607
sVdysuria
p1608
(lp1609
sVperiop
p1610
(lp1611
sVantipsychot
p1612
(lp1613
sVtorsion
p1614
(lp1615
sVturnov
p1616
(lp1617
sVbiphas
p1618
(lp1619
sVemesi
p1620
(lp1621
sVanovulatori
p1622
(lp1623
sVhyperlipidaemia
p1624
(lp1625
sVclassic
p1626
(lp1627
sVanomali
p1628
(lp1629
sVacuiti
p1630
(lp1631
sVerect
p1632
(lp1633
sVinsuffici
p1634
(lp1635
sVcompon
p1636
(lp1637
sVaccumul
p1638
(lp1639
sVsecret
p1640
(lp1641
sVtrigger
p1642
(lp1643
sVpyogen
p1644
(lp1645
sVpreeclampsia
p1646
(lp1647
sVoptic
p1648
(lp1649
S'latent'
p1650
asVadvers
p1651
(lp1652
sVeros
p1653
(lp1654
sVaddit
p1655
(lp1656
sVreflex
p1657
(lp1658
sVdysmenorrhoea
p1659
(lp1660
sVantimycot
p1661
(lp1662
sVmucolyt
p1663
(lp1664
sVregul
p1665
(lp1666
sVruptur
p1667
(lp1668
sVinotrop
p1669
(lp1670
sVsuppress
p1671
(lp1672
g557
asVauditori
p1673
(lp1674
sVthromboembol
p1675
(lp1676
sVthrombosi
p1677
(lp1678
sVcoordin
p1679
(lp1680
sVaccident
p1681
(lp1682
sVpsychosi
p1683
(lp1684
sVerythema
p1685
(lp1686
sVpuberti
p1687
(lp1688
sVmenarch
p1689
(lp1690
sVhernia
p1691
(lp1692
sVrepetit
p1693
(lp1694
sVneutral
p1695
(lp1696
sVpresent
p1697
(lp1698
S'object'
p1699
asVstatist
p1700
(lp1701
sVrefractori
p1702
(lp1703
sVinhibit
p1704
(lp1705
sVhepatocellular
p1706
(lp1707
g1053
asVsputum
p1708
(lp1709
S'benign'
p1710
asVdose
p1711
(lp1712
g1395
asVnephriti
p1713
(lp1714
sVeject
p1715
(lp1716
sVepicondyl
p1717
(lp1718
sVmetastasi
p1719
(lp1720
sVstomat
p1721
(lp1722
sVabrupt
p1723
(lp1724
sVpeni
p1725
(lp1726
sVaberr
p1727
(lp1728
sVaural
p1729
(lp1730
sVprepuc
p1731
(lp1732
sVobserv
p1733
(lp1734
sVhypertrophi
p1735
(lp1736
sVpseudomembran
p1737
(lp1738
sVhaemorrhag
p1739
(lp1740
sVsynthesi
p1741
(lp1742
sVreinfect
p1743
(lp1744
sVneuron
p1745
(lp1746
sVotorhinolaryngolog
p1747
(lp1748
sVmotil
p1749
(lp1750
sVelectrolyt
p1751
(lp1752
sVtendin
p1753
(lp1754
sVsomnol
p1755
(lp1756
sVincompat
p1757
(lp1758
sVcolorect
p1759
(lp1760
sVthyrostat
p1761
(lp1762
sVexud
p1763
(lp1764
sVeczema
p1765
(lp1766
S'delirium'
p1767
asVanabol
p1768
(lp1769
sVsquamou
p1770
(lp1771
sVprotein
p1772
(lp1773
S'cholesterol'
p1774
ag132
asVsymptomatolog
p1775
(lp1776
sVdiverticul
p1777
(lp1778
sVtrival
p1779
(lp1780
sVmenstruat
p1781
(lp1782
sVabscess
p1783
(lp1784
sVdementia
p1785
(lp1786
sVmutat
p1787
(lp1788
sVphlebographi
p1789
(lp1790
sVminim
p1791
(lp1792
sVcomedon
p1793
(lp1794
sVantibiot
p1795
(lp1796
sVmedic
p1797
(lp1798
sVprothrombin
p1799
(lp1800
sVleukocytosi
p1801
(lp1802
sVbenign
p1803
(lp1804
S'testicular'
p1805
asVaqueou
p1806
(lp1807
sVcomplex
p1808
(lp1809
g1074
ag558
asVpreclin
p1810
(lp1811
sVpruritu
p1812
(lp1813
sVcutan
p1814
(lp1815
sVradiolog
p1816
(lp1817
sVsclerosi
p1818
(lp1819
sVdocument
p1820
(lp1821
sVsalicyl
p1822
(lp1823
sVdiastol
p1824
(lp1825
sVataxia
p1826
(lp1827
sVcoronari
p1828
(lp1829
sVcompetit
p1830
(lp1831
sVhypersensit
p1832
(lp1833
sVfibrosi
p1834
(lp1835
sVspondyl
p1836
(lp1837
sVoptim
p1838
(lp1839
sVintravascular
p1840
(lp1841
sVassist
p1842
(lp1843
sVeffect
p1844
(lp1845
sVrenin
p1846
(lp1847
g1340
asVadenoma
p1848
(lp1849
sVprognosi
p1850
(lp1851
sVcystoscopi
p1852
(lp1853
sVcurettag
p1854
(lp1855
sVnephrot
p1856
(lp1857
sVhygien
p1858
(lp1859
sVintrathec
p1860
(lp1861
sVextern
p1862
(lp1863
sVmyocard
p1864
(lp1865
sVcatheter
p1866
(lp1867
sVvenou
p1868
(lp1869
sVorchiti
p1870
(lp1871
sVepiderm
p1872
(lp1873
sVcosmet
p1874
(lp1875
sVretard
p1876
(lp1877
sVplacebo
p1878
(lp1879
sVplasminogen
p1880
(lp1881
g1353
asVneural
p1882
(lp1883
sVgenit
p1884
(lp1885
sVprotrus
p1886
(lp1887
sVmyeloma
p1888
(lp1889
g944
asVqualit
p1890
(lp1891
sVbronchoconstrict
p1892
(lp1893
sVcontact
p1894
(lp1895
sVsupin
p1896
(lp1897
sVwithdraw
p1898
(lp1899
sVneuropathi
p1900
(lp1901
sVmetabol
p1902
(lp1903
sVnephrotox
p1904
(lp1905
sVcataract
p1906
(lp1907
sVisoton
p1908
(lp1909
sVscabi
p1910
(lp1911
sVsporad
p1912
(lp1913
sVsynovi
p1914
(lp1915
sVdyspareunia
p1916
(lp1917
g138
asVsclera
p1918
(lp1919
sVparathyroid
p1920
(lp1921
sVbilater
p1922
(lp1923
sVactiv
p1924
(lp1925
sVfibrin
p1926
(lp1927
g387
asVbronchospasm
p1928
(lp1929
sVclinic
p1930
(lp1931
g752
asVposttraumat
p1932
(lp1933
sVanaphylact
p1934
(lp1935
sVbolu
p1936
(lp1937
sVosteoarthr
p1938
(lp1939
sVmaxillari
p1940
(lp1941
sVsimultan
p1942
(lp1943
sVsystemat
p1944
(lp1945
sVimpregn
p1946
(lp1947
sVtranscutan
p1948
(lp1949
sVamenorrhoea
p1950
(lp1951
sVconcentr
p1952
(lp1953
sVcervix
p1954
(lp1955
sVepilepsi
p1956
(lp1957
sVovul
p1958
(lp1959
sVatrial
p1960
(lp1961
sVrigid
p1962
(lp1963
sVinterfer
p1964
(lp1965
sVstimul
p1966
(lp1967
sVconjug
p1968
(lp1969
sVchromosom
p1970
(lp1971
sVtheoret
p1972
(lp1973
sVintermitt
p1974
(lp1975
sVidentif
p1976
(lp1977
sVendogen
p1978
(lp1979
sVhypovitaminosi
p1980
(lp1981
sVcervic
p1982
(lp1983
sVplasma
p1984
(lp1985
g130
asVpostpartum
p1986
(lp1987
sVdeterg
p1988
(lp1989
sVmetaplasia
p1990
(lp1991
S'myeloma'
p1992
asVapplic
p1993
(lp1994
sVinspir
p1995
(lp1996
sVmenopaus
p1997
(lp1998
sVhypothesi
p1999
(lp2000
sVatrophi
p2001
(lp2002
sVhaematuria
p2003
(lp2004
sVrebound
p2005
(lp2006
S'vertigo'
p2007
asVtitr
p2008
(lp2009
sVperiod
p2010
(lp2011
S'phase'
p2012
asVtenosynov
p2013
(lp2014
sVpermeabl
p2015
(lp2016
sVfungicid
p2017
(lp2018
sVexpector
p2019
(lp2020
sVdeplet
p2021
(lp2022
sVfacial
p2023
(lp2024
sVdonor
p2025
(lp2026
S'ganglion'
p2027
asVinfantil
p2028
(lp2029
sVlymphoma
p2030
(lp2031
sVexcret
p2032
(lp2033
sVmastiti
p2034
(lp2035
sVperipher
p2036
(lp2037
sVplacenta
p2038
(lp2039
sVinsert
p2040
(lp2041
sVdiplopia
p2042
(lp2043
S'cor'
p2044
asVspecif
p2045
(lp2046
sVauricular
p2047
(lp2048
g335
asVdistens
p2049
(lp2050
sVsyncop
p2051
(lp2052
sVexogen
p2053
(lp2054
sVspastic
p2055
(lp2056
sVmanifest
p2057
(lp2058
g355
ag59
asVpharmaceut
p2059
(lp2060
sVtransform
p2061
(lp2062
sVpharyng
p2063
(lp2064
sVmicrocircul
p2065
(lp2066
sVfibrinolyt
p2067
(lp2068
sVrheumatoid
p2069
(lp2070
S'phobia'
p2071
aS'sphincter'
p2072
asVfissur
p2073
(lp2074
sVrecurr
p2075
(lp2076
sVobstip
p2077
(lp2078
sVprolaps
p2079
(lp2080
sVoxid
p2081
(lp2082
sVmicrosom
p2083
(lp2084
sVsalin
p2085
(lp2086
sVmotor
p2087
(lp2088
S'vasomotor'
p2089
aS'urticaria'
p2090
ag1481
asVurgenc
p2091
(lp2092
sVneuralgia
p2093
(lp2094
S'enema'
p2095
asVcoliti
p2096
(lp2097
sVviril
p2098
(lp2099
sVintraindividu
p2100
(lp2101
sVdepolar
p2102
(lp2103
sVmaxim
p2104
(lp2105
sVprenat
p2106
(lp2107
sVintoler
p2108
(lp2109
sVhydrophil
p2110
(lp2111
sVintern
p2112
(lp2113
g707
ag302
ag1604
asVadequ
p2114
(lp2115
sVcachexia
p2116
(lp2117
sVblephar
p2118
(lp2119
sVoesophag
p2120
(lp2121
sVflush
p2122
(lp2123
sVtoxoplasmosi
p2124
(lp2125
sVinact
p2126
(lp2127
sVintact
p2128
(lp2129
sVmicrogram
p2130
(lp2131
sVtransmiss
p2132
(lp2133
sVviral
p2134
(lp2135
sVanalges
p2136
(lp2137
sVanaerob
p2138
(lp2139
sVresect
p2140
(lp2141
sVcerebr
p2142
(lp2143
sVfunction
p2144
(lp2145
S'lipid'
p2146
asVconstip
p2147
(lp2148
sVtube
p2149
(lp2150
S'abdomen'
p2151
asVpreliminari
p2152
(lp2153
sVminer
p2154
(lp2155
sVdefaec
p2156
(lp2157
sVurethr
p2158
(lp2159
sVmicroorgan
p2160
(lp2161
sVdeficit
p2162
(lp2163
sVsubstitut
p2164
(lp2165
sVinject
p2166
(lp2167
sVanticonvuls
p2168
(lp2169
sVcaviti
p2170
(lp2171
sVcondit
p2172
(lp2173
sVcholestasi
p2174
(lp2175
sVcomplic
p2176
(lp2177
sVmalais
p2178
(lp2179
sVpsychogen
p2180
(lp2181
sVrefer
p2182
(lp2183
S'assist'
p2184
asVimmun
p2185
(lp2186
sVpatient
p2187
(lp2188
sVlipid
p2189
(lp2190
g129
aS'function'
p2191
ag132
asVanosmia
p2192
(lp2193
g599
asVdecompens
p2194
(lp2195
sVcardiomyopathi
p2196
(lp2197
sVdental
p2198
(lp2199
sVident
p2200
(lp2201
sVtumour
p2202
(lp2203
sVobes
p2204
(lp2205
sVparasit
p2206
(lp2207
sVpertussi
p2208
(lp2209
sVsomat
p2210
(lp2211
sVimpot
p2212
(lp2213
sVvulvovagin
p2214
(lp2215
sVneutrophil
p2216
(lp2217
sVhyperglycaemia
p2218
(lp2219
sVjuvenil
p2220
(lp2221
sVadjuv
p2222
(lp2223
sVanorect
p2224
(lp2225
sVantihistamin
p2226
(lp2227
sVfibril
p2228
(lp2229
sVabdomin
p2230
(lp2231
sVglaucoma
p2232
(lp2233
g214
asVantibodi
p2234
(lp2235
sVacn
p2236
(lp2237
sVelectrophysiolog
p2238
(lp2239
sVcontamin
p2240
(lp2241
sVosmolar
p2242
(lp2243
sVpresynapt
p2244
(lp2245
sVradiographi
p2246
(lp2247
sVosteomyel
p2248
(lp2249
sValert
p2250
(lp2251
sVarthriti
p2252
(lp2253
sVcatarrh
p2254
(lp2255
sVtesticular
p2256
(lp2257
g653
ag1710
asVapproxim
p2258
(lp2259
sVprostat
p2260
(lp2261
sVhumor
p2262
(lp2263
sVemuls
p2264
(lp2265
sVcoitu
p2266
(lp2267
sVreduct
p2268
(lp2269
sVroutin
p2270
(lp2271
sVophthalm
p2272
(lp2273
sVeffici
p2274
(lp2275
sVsuperinfect
p2276
(lp2277
sVlytic
p2278
(lp2279
sVirrit
p2280
(lp2281
sVfraction
p2282
(lp2283
g460
aS'albumin'
p2284
asVosmol
p2285
(lp2286
sVmucopurul
p2287
(lp2288
sVvagin
p2289
(lp2290
sVdilat
p2291
(lp2292
sVchronic
p2293
(lp2294
sVamblyopia
p2295
(lp2296
S'vision'
p2297
asVirrig
p2298
(lp2299
sVcalculu
p2300
(lp2301
sVasymptomat
p2302
(lp2303
sVdegen
p2304
(lp2305
sVartifici
p2306
(lp2307
sVurticaria
p2308
(lp2309
sVrestless
p2310
(lp2311
sVautoimmun
p2312
(lp2313
sVinclus
p2314
(lp2315
sVbronchiti
p2316
(lp2317
sVsubclin
p2318
(lp2319
sVdiscoid
p2320
(lp2321
S'alopecia'
p2322
asVgravid
p2323
(lp2324
sVpredisposit
p2325
(lp2326
sVepidemiolog
p2327
(lp2328
sVcarbohydr
p2329
(lp2330
sVaden
p2331
(lp2332
sVintellig
p2333
(lp2334
sVelast
p2335
(lp2336
sVthrombocytopaenia
p2337
(lp2338
sVpaediatr
p2339
(lp2340
sVantipyret
p2341
(lp2342
sVsubcapsular
p2343
(lp2344
sValbumin
p2345
(lp2346
sVinterv
p2347
(lp2348
sVamnesia
p2349
(lp2350
g135
asVdysplasia
p2351
(lp2352
g1053
asVirrevers
p2353
(lp2354
sVgluten
p2355
(lp2356
sVinstil
p2357
(lp2358
sVatop
p2359
(lp2360
sVteratogen
p2361
(lp2362
S'solvent'
p2363
asVpharmacodynam
p2364
(lp2365
sVurogenit
p2366
(lp2367
sVsubstrat
p2368
(lp2369
sVhaemorrhoid
p2370
(lp2371
sVposterior
p2372
(lp2373
S'auricular'
p2374
asVdiffus
p2375
(lp2376
sVperinat
p2377
(lp2378
sVprocedur
p2379
(lp2380
sVantituss
p2381
(lp2382
sValimentari
p2383
(lp2384
sVcontraind
p2385
(lp2386
sVpharmacolog
p2387
(lp2388
sVgastrooesophag
p2389
(lp2390
sVmycot
p2391
(lp2392
sVcardioselect
p2393
(lp2394
sVretin
p2395
(lp2396
sVfiltrat
p2397
(lp2398
sVmuscl
p2399
(lp2400
sVevolut
p2401
(lp2402
sVparticl
p2403
(lp2404
sVveget
p2405
(lp2406
sVeclampsia
p2407
(lp2408
S'ulcer'
p2409
asVmaximum
p2410
(lp2411
sVmonotherapi
p2412
(lp2413
sVleukopenia
p2414
(lp2415
S'fistula'
p2416
asVpityriasi
p2417
(lp2418
sVaneurysm
p2419
(lp2420
sVabsenc
p2421
(lp2422
sVfundament
p2423
(lp2424
sVtinnitu
p2425
(lp2426
sVganglion
p2427
(lp2428
g2363
ag707
asVdissemin
p2429
(lp2430
sVdermatophytosi
p2431
(lp2432
sVvaricos
p2433
(lp2434
sVatyp
p2435
(lp2436
sVblock
p2437
(lp2438
sVclassif
p2439
(lp2440
sVabdomen
p2441
(lp2442
g1564
asVarticular
p2443
(lp2444
sVevalu
p2445
(lp2446
sVmycobacterium
p2447
(lp2448
sVtomographi
p2449
(lp2450
sVdiagnosi
p2451
(lp2452
sVingest
p2453
(lp2454
sVpsychiatr
p2455
(lp2456
sVlumbar
p2457
(lp2458
sVimmobil
p2459
(lp2460
sVmucociliari
p2461
(lp2462
sVcircul
p2463
(lp2464
sVbursiti
p2465
(lp2466
sVperiton
p2467
(lp2468
sVaggrav
p2469
(lp2470
sVmetabolit
p2471
(lp2472
sVproport
p2473
(lp2474
sVindirect
p2475
(lp2476
S'causal'
p2477
asVinvolut
p2478
(lp2479
sVcrisi
p2480
(lp2481
sVparadox
p2482
(lp2483
sVdiurnal
p2484
(lp2485
sVtone
p2486
(lp2487
sVinguin
p2488
(lp2489
sVconstitut
p2490
(lp2491
sVmalabsorpt
p2492
(lp2493
sVcandidiasi
p2494
(lp2495
sVinvalid
p2496
(lp2497
sVoestrogen
p2498
(lp2499
S'progestogen'
p2500
asVthrombophleb
p2501
(lp2502
sVpsychotrop
p2503
(lp2504
sVvalid
p2505
(lp2506
sVhypotens
p2507
(lp2508
sVbalan
p2509
(lp2510
sVnormal
p2511
(lp2512
g130
asVinfect
p2513
(lp2514
sVtest
p2515
(lp2516
sVantisept
p2517
(lp2518
sVimplant
p2519
(lp2520
sVspasm
p2521
(lp2522
sVflexion
p2523
(lp2524
S'erythema'
p2525
asVtic
p2526
(lp2527
sVcontracept
p2528
(lp2529
sVlethargi
p2530
(lp2531
sVgranul
p2532
(lp2533
sVdermatolog
p2534
(lp2535
sVthorac
p2536
(lp2537
sVmelanoma
p2538
(lp2539
S'ovarian'
p2540
asVbioequival
p2541
(lp2542
sVspermatogenesi
p2543
(lp2544
sVhormon
p2545
(lp2546
sVphlebiti
p2547
(lp2548
sVglomerular
p2549
(lp2550
S'basal'
p2551
asVintens
p2552
(lp2553
sVintent
p2554
(lp2555
sVpeak
p2556
(lp2557
sVpsoriasi
p2558
(lp2559
sVdystonia
p2560
(lp2561
sVvigil
p2562
(lp2563
sVinflamm
p2564
(lp2565
sVlymphadenopathi
p2566
(lp2567
sVenzym
p2568
(lp2569
sVpeptic
p2570
(lp2571
g59
ag353
ag1467
asVshunt
p2572
(lp2573
sVgastroduoden
p2574
(lp2575
sVrhinorrhoea
p2576
(lp2577
sVvasoact
p2578
(lp2579
sVbronchiectasi
p2580
(lp2581
sVrecuper
p2582
(lp2583
sVepisiotomi
p2584
(lp2585
sVorbit
p2586
(lp2587
S'respond'
p2588
asVophthalmolog
p2589
(lp2590
sVnocturia
p2591
(lp2592
sVanteced
p2593
(lp2594
sVossicl
p2595
(lp2596
sVretrobulbar
p2597
(lp2598
sVbroad
p2599
(lp2600
g97
asVnutrient
p2601
(lp2602
sVdegrad
p2603
(lp2604
sVoral
p2605
(lp2606
S'corticosteroid'
p2607
asVpsychic
p2608
(lp2609
sVhypogonad
p2610
(lp2611
sVischaemia
p2612
(lp2613
S'angina'
p2614
as.